
I2C_SPI_GPIO.elf:     file format elf32-littleriscv
I2C_SPI_GPIO.elf
architecture: riscv:rv32, flags 0x00000112:
EXEC_P, HAS_SYMS, D_PAGED
start address 0x00000000

Program Header:
    LOAD off    0x00001000 vaddr 0x00000000 paddr 0x00000000 align 2**12
         filesz 0x00002ae8 memsz 0x00003670 flags rwx

Sections:
Idx Name           Size      VMA       LMA       File off  Algn  Flags
  0 .text          00002634  00000000  00000000  00001000  2**4  CONTENTS, ALLOC, LOAD, READONLY, CODE
  1 .gprof         00000000  00002634  00002634  00003ae8  2**2  CONTENTS
  2 .ctors         00000000  00002634  00002634  00003ae8  2**2  CONTENTS
  3 .dtors         00000000  00002634  00002634  00003ae8  2**2  CONTENTS
  4 .rodata        000004a0  00002634  00002634  00003634  2**2  CONTENTS, ALLOC, LOAD, READONLY, DATA
  5 .data          00000014  00002ad4  00002ad4  00003ad4  2**2  CONTENTS, ALLOC, LOAD, DATA
  6 .bss           0000017c  00002ae8  00002ae8  00003ae8  2**2  ALLOC
  7 .heap          00000000  00002c68  00002c68  00003ae8  2**3  CONTENTS
  8 .stack         00000a00  00002c70  00002c70  00003ae8  2**4  ALLOC
  9 .debug_info    0000319d  00000000  00000000  00003ae8  2**0  CONTENTS, READONLY, DEBUGGING, OCTETS
 10 .debug_abbrev  00000e45  00000000  00000000  00006c85  2**0  CONTENTS, READONLY, DEBUGGING, OCTETS
 11 .debug_aranges 00000388  00000000  00000000  00007ad0  2**3  CONTENTS, READONLY, DEBUGGING, OCTETS
 12 .debug_ranges  000002c0  00000000  00000000  00007e58  2**3  CONTENTS, READONLY, DEBUGGING, OCTETS
 13 .debug_macro   00003666  00000000  00000000  00008118  2**0  CONTENTS, READONLY, DEBUGGING, OCTETS
 14 .debug_line    0000554a  00000000  00000000  0000b77e  2**0  CONTENTS, READONLY, DEBUGGING, OCTETS
 15 .debug_str     0000a991  00000000  00000000  00010cc8  2**0  CONTENTS, READONLY, DEBUGGING, OCTETS
 16 .comment       00000033  00000000  00000000  0001b659  2**0  CONTENTS, READONLY
 17 .debug_frame   00000b7c  00000000  00000000  0001b68c  2**2  CONTENTS, READONLY, DEBUGGING, OCTETS
SYMBOL TABLE:
00000000 l    d  .text	00000000 .text
00002634 l    d  .gprof	00000000 .gprof
00002634 l    d  .ctors	00000000 .ctors
00002634 l    d  .dtors	00000000 .dtors
00002634 l    d  .rodata	00000000 .rodata
00002ad4 l    d  .data	00000000 .data
00002ae8 l    d  .bss	00000000 .bss
00002c68 l    d  .heap	00000000 .heap
00002c70 l    d  .stack	00000000 .stack
00000000 l    d  .debug_info	00000000 .debug_info
00000000 l    d  .debug_abbrev	00000000 .debug_abbrev
00000000 l    d  .debug_aranges	00000000 .debug_aranges
00000000 l    d  .debug_ranges	00000000 .debug_ranges
00000000 l    d  .debug_macro	00000000 .debug_macro
00000000 l    d  .debug_line	00000000 .debug_line
00000000 l    d  .debug_str	00000000 .debug_str
00000000 l    d  .comment	00000000 .comment
00000000 l    d  .debug_frame	00000000 .debug_frame
00000000 l    df *ABS*	00000000 ./src/bsp/driver/riscv_mc/crt0.o
000005ee l       .text	00000000 crtInit
00000068 l       .text	00000000 __handle_isr
0000005a l       .text	00000000 __handle_esr
0000006a l       .text	00000000 __handle_exit
0000060a l       .text	00000000 bss_init
00000616 l       .text	00000000 bss_loop
00000622 l       .text	00000000 bss_done
00000628 l       .text	00000000 infinitLoop
00000000 l    df *ABS*	00000000 uart.c
00000000 l    df *ABS*	00000000 spi_master.c
00000000 l    df *ABS*	00000000 exit.c
00000000 l    df *ABS*	00000000 interrupt.c
00000000 l    df *ABS*	00000000 iob.c
00002ae8 l     O .bss	00000004 s_putc_func
00002aec l     O .bss	00000004 s_getc_func
00002af0 l     O .bss	00000004 s_flush_func
00000776 l     F .text	0000003c iob_putc
000007b2 l     F .text	00000030 iob_getc
000007e2 l     F .text	00000030 iob_flush
00002ad4 l     O .data	00000014 __stdio
00000000 l    df *ABS*	00000000 pic.c
00000000 l    df *ABS*	00000000 reg_access.c
00000000 l    df *ABS*	00000000 i2c_master.c
00000000 l    df *ABS*	00000000 gpio.c
00000000 l    df *ABS*	00000000 i2c_program.c
00000000 l    df *ABS*	00000000 main.c
00001cfa l     F .text	0000005a lscc_uart_putc
00001d54 l     F .text	00000014 lscc_uart_getc
00001d68 l     F .text	00000014 lscc_uart_flush
00000000 l    df *ABS*	00000000 utils.c
00000000 l    df *ABS*	00000000 pico-exit.c
00000000 l    df *ABS*	00000000 memcmp.c
00000000 l    df *ABS*	00000000 printf.c
00000000 l    df *ABS*	00000000 puts.c
00000000 l    df *ABS*	00000000 vfiprintf.c
00001fb6 l     F .text	0000003e __ultoa_invert
00000000 l    df *ABS*	00000000 memcpy.c
00000000 l    df *ABS*	00000000 fini.c
00000000 l    df *ABS*	00000000 strnlen.c
00000000 l    df *ABS*	00000000 fputc.c
00001422 g     F .text	0000004c i2c_lsc_init_address_XO2_XO3
0000129c g     F .text	0000004e gpio_output_write
00001f54 g     F .text	00000026 printf
000032e8 g       .data	00000000 __global_pointer$
000025dc g     F .text	00000028 .hidden __riscv_save_8
00001330 g     F .text	0000004c i2c_program_done
00000874 g     F .text	0000002a reg_32b_write
00002628 g     F .text	0000000c .hidden __riscv_restore_3
00000f42 g     F .text	00000286 i2c_master_write
00001a1a g     F .text	0000012c i2c_program_XO2_XO3_spiflash
00002614 g     F .text	00000020 .hidden __riscv_restore_10
000025dc g     F .text	00000028 .hidden __riscv_save_11
000009e6 g     F .text	00000054 i2c_master_init
0000093e g     F .text	00000074 reg_8b_modify
00002634 g       .text	00000000 _etext
0000083a g     F .text	0000003a pic_int_pending
00002634 g       .ctors	00000000 _ctors_end
00002628 g     F .text	0000000c .hidden __riscv_restore_2
0000063c g     F .text	000000be irq_callback
000017c4 g     F .text	0000011e i2c_flash_program_spiflash
000006fa g     F .text	00000044 esr_callback
0000248c g     F .text	000000dc memcpy
000008ca g     F .text	00000046 reg_32b_modify
00001f7a g     F .text	0000003c puts
0000146e g     F .text	000000be i2c_isc_erase_flash_XO3D
00002ae8 g       .bss	00000000 _bss_start
000025d4 g     F .text	00000030 .hidden __riscv_save_12
0000039c g     F .text	00000252 spi_master_transfer_blocking
0000089e g     F .text	0000002c reg_32b_read
00001ff4 g     F .text	00000498 __i_vfprintf
00002614 g     F .text	00000020 .hidden __riscv_restore_11
00002604 g     F .text	0000000c .hidden __riscv_save_1
00002628 g     F .text	0000000c .hidden __riscv_restore_0
000025ea g     F .text	0000001a .hidden __riscv_save_7
0000261e g     F .text	00000016 .hidden __riscv_restore_5
00001c90 g     F .text	0000006a spiflash_deviceid
00002af4 g     O .bss	00000004 pic_dev
0000073e g     F .text	00000038 iob_init
000015d4 g     F .text	00000050 i2c_isc_enable_flash_XO2_XO3
0000259c g     F .text	00000018 strnlen
0000261e g     F .text	00000016 .hidden __riscv_restore_6
00002c64 g       .bss	00000000 _bss_end
00002568 g     F .text	00000034 __libc_fini_array
00002b40 g     O .bss	00000088 gpio_test
00001742 g     F .text	00000082 i2c_device_id
000025dc g     F .text	00000028 .hidden __riscv_save_9
000025ea g     F .text	0000001a .hidden __riscv_save_4
00001b46 g     F .text	0000014a i2c_program_XO3D_spiflash
00000090 g     F .text	0000008a uart_init
000016a6 g     F .text	0000004e i2c_isc_erase_sram
00000910 g     F .text	0000002e reg_8b_write
00002604 g     F .text	0000000c .hidden __riscv_save_3
00002bdc g     O .bss	00000058 uart_core_uart
00000000 g       .text	00000000 _ftext
00000000 g       .text	00000000 _start
00002634 g       .ctors	00000000 _ctors_start
00001f2e g     F .text	00000026 memcmp
000025dc g     F .text	00000028 .hidden __riscv_save_10
0000261e g     F .text	00000016 .hidden __riscv_restore_4
00002614 g     F .text	00000020 .hidden __riscv_restore_8
000025ea g     F .text	0000001a .hidden __riscv_save_6
00000a00 g       *ABS*	00000000 _STACK_SIZE
00001eb8 g     F .text	00000058 delayMS
00002614 g     F .text	00000020 .hidden __riscv_restore_9
0000261e g     F .text	00000016 .hidden __riscv_restore_7
00001d7c g     F .text	0000013c main
00000010 g       .text	00000000 trap_entry
00000000 g       *ABS*	00000000 _HEAP_SIZE
000018e2 g     F .text	00000138 i2c_flash_verify_spiflash
0000011a g     F .text	00000062 uart_putc
00000812 g     F .text	00000028 pic_int_clear
0000017c g     F .text	00000092 spi_master_init
000012ea g     F .text	00000046 i2c_isc_disable
000025b4 g     F .text	00000020 putc
000016f4 g     F .text	0000004e i2c_isc_enable_sram
00000b36 g     F .text	0000040c i2c_master_repeated_start
0000137c g     F .text	000000a6 i2c_lsc_init_address_XO3D
00003670 g       .stack	00000000 _stack_start
0000020e g     F .text	0000018e spi_master_config
0000152c g     F .text	000000a8 i2c_isc_erase_flash_XO2_XO3
000025b4 g     F .text	00000020 fputc
00002604 g     F .text	0000000c .hidden __riscv_save_2
00000a3a g     F .text	000000fc i2c_master_config
00001624 g     F .text	00000082 i2c_sr_read
000025ea g     F .text	0000001a .hidden __riscv_save_5
00000000 g     F *ABS*	000004f2 vfscanf
00002af8 g     O .bss	00000048 int_table
00001f10 g     F .text	0000001e exit
00002c34 g     O .bss	00000030 spi_master_test
00002610 g     F .text	00000024 .hidden __riscv_restore_12
00002604 g     F .text	0000000c .hidden __riscv_save_0
00000630  w    F .text	0000000c _exit
000009b2 g     F .text	00000034 reg_8b_read
00002bc8 g     O .bss	00000014 i2c_master_test
00002668  w    O .rodata	0000000c __iob
000011c8 g     F .text	000000d4 gpio_init
00002628 g     F .text	0000000c .hidden __riscv_restore_1
00002634 g       .dtors	00000000 _dtors_start
00001ff4 g     F .text	000004ee vfprintf



Disassembly of section .text:

00000000 <_ftext>:
_ftext():
D:\Propel_Study\I2C_SPI_Programming_singlecore\Workspace\I2C_SPI_GPIO\Debug/../src/bsp/driver/riscv_mc/crt0.S:8
.global main
.weak   irq_callback
.weak   esr_callback

_start:
  j crtInit
       0:	5ee0006f          	j	5ee <crtInit>
	...

00000010 <trap_entry>:
trap_entry():
D:\Propel_Study\I2C_SPI_Programming_singlecore\Workspace\I2C_SPI_GPIO\Debug/../src/bsp/driver/riscv_mc/crt0.S:13

.global  trap_entry
.align 4
trap_entry:
  sw x1,  - 1*4(sp)
      10:	fe112e23          	sw	ra,-4(sp)
D:\Propel_Study\I2C_SPI_Programming_singlecore\Workspace\I2C_SPI_GPIO\Debug/../src/bsp/driver/riscv_mc/crt0.S:14
  sw x5,  - 2*4(sp)
      14:	fe512c23          	sw	t0,-8(sp)
D:\Propel_Study\I2C_SPI_Programming_singlecore\Workspace\I2C_SPI_GPIO\Debug/../src/bsp/driver/riscv_mc/crt0.S:15
  sw x6,  - 3*4(sp)
      18:	fe612a23          	sw	t1,-12(sp)
D:\Propel_Study\I2C_SPI_Programming_singlecore\Workspace\I2C_SPI_GPIO\Debug/../src/bsp/driver/riscv_mc/crt0.S:16
  sw x7,  - 4*4(sp)
      1c:	fe712823          	sw	t2,-16(sp)
D:\Propel_Study\I2C_SPI_Programming_singlecore\Workspace\I2C_SPI_GPIO\Debug/../src/bsp/driver/riscv_mc/crt0.S:17
  sw x10, - 5*4(sp)
      20:	fea12623          	sw	a0,-20(sp)
D:\Propel_Study\I2C_SPI_Programming_singlecore\Workspace\I2C_SPI_GPIO\Debug/../src/bsp/driver/riscv_mc/crt0.S:18
  sw x11, - 6*4(sp)
      24:	feb12423          	sw	a1,-24(sp)
D:\Propel_Study\I2C_SPI_Programming_singlecore\Workspace\I2C_SPI_GPIO\Debug/../src/bsp/driver/riscv_mc/crt0.S:19
  sw x12, - 7*4(sp)
      28:	fec12223          	sw	a2,-28(sp)
D:\Propel_Study\I2C_SPI_Programming_singlecore\Workspace\I2C_SPI_GPIO\Debug/../src/bsp/driver/riscv_mc/crt0.S:20
  sw x13, - 8*4(sp)
      2c:	fed12023          	sw	a3,-32(sp)
D:\Propel_Study\I2C_SPI_Programming_singlecore\Workspace\I2C_SPI_GPIO\Debug/../src/bsp/driver/riscv_mc/crt0.S:21
  sw x14, - 9*4(sp)
      30:	fce12e23          	sw	a4,-36(sp)
D:\Propel_Study\I2C_SPI_Programming_singlecore\Workspace\I2C_SPI_GPIO\Debug/../src/bsp/driver/riscv_mc/crt0.S:22
  sw x15, -10*4(sp)
      34:	fcf12c23          	sw	a5,-40(sp)
D:\Propel_Study\I2C_SPI_Programming_singlecore\Workspace\I2C_SPI_GPIO\Debug/../src/bsp/driver/riscv_mc/crt0.S:23
  sw x16, -11*4(sp)
      38:	fd012a23          	sw	a6,-44(sp)
D:\Propel_Study\I2C_SPI_Programming_singlecore\Workspace\I2C_SPI_GPIO\Debug/../src/bsp/driver/riscv_mc/crt0.S:24
  sw x17, -12*4(sp)
      3c:	fd112823          	sw	a7,-48(sp)
D:\Propel_Study\I2C_SPI_Programming_singlecore\Workspace\I2C_SPI_GPIO\Debug/../src/bsp/driver/riscv_mc/crt0.S:25
  sw x28, -13*4(sp)
      40:	fdc12623          	sw	t3,-52(sp)
D:\Propel_Study\I2C_SPI_Programming_singlecore\Workspace\I2C_SPI_GPIO\Debug/../src/bsp/driver/riscv_mc/crt0.S:26
  sw x29, -14*4(sp)
      44:	fdd12423          	sw	t4,-56(sp)
D:\Propel_Study\I2C_SPI_Programming_singlecore\Workspace\I2C_SPI_GPIO\Debug/../src/bsp/driver/riscv_mc/crt0.S:27
  sw x30, -15*4(sp)
      48:	fde12223          	sw	t5,-60(sp)
D:\Propel_Study\I2C_SPI_Programming_singlecore\Workspace\I2C_SPI_GPIO\Debug/../src/bsp/driver/riscv_mc/crt0.S:28
  sw x31, -16*4(sp)
      4c:	fdf12023          	sw	t6,-64(sp)
D:\Propel_Study\I2C_SPI_Programming_singlecore\Workspace\I2C_SPI_GPIO\Debug/../src/bsp/driver/riscv_mc/crt0.S:29
  addi sp,sp,-16*4
      50:	7139                	addi	sp,sp,-64
D:\Propel_Study\I2C_SPI_Programming_singlecore\Workspace\I2C_SPI_GPIO\Debug/../src/bsp/driver/riscv_mc/crt0.S:30
  csrr a0, mcause    // load mcause value as parameter
      52:	34202573          	csrr	a0,mcause
D:\Propel_Study\I2C_SPI_Programming_singlecore\Workspace\I2C_SPI_GPIO\Debug/../src/bsp/driver/riscv_mc/crt0.S:31
  bltz a0, __handle_isr
      56:	00054963          	bltz	a0,68 <__handle_isr>

0000005a <__handle_esr>:
__handle_esr():
D:\Propel_Study\I2C_SPI_Programming_singlecore\Workspace\I2C_SPI_GPIO\Debug/../src/bsp/driver/riscv_mc/crt0.S:33
__handle_esr:
  csrr a1, mepc
      5a:	341025f3          	csrr	a1,mepc
D:\Propel_Study\I2C_SPI_Programming_singlecore\Workspace\I2C_SPI_GPIO\Debug/../src/bsp/driver/riscv_mc/crt0.S:34
  mv   a2, sp
      5e:	860a                	mv	a2,sp
D:\Propel_Study\I2C_SPI_Programming_singlecore\Workspace\I2C_SPI_GPIO\Debug/../src/bsp/driver/riscv_mc/crt0.S:35
  call esr_callback
      60:	2d69                	jal	6fa <esr_callback>
      62:	34151073          	csrw	mepc,a0
      66:	a011                	j	6a <__handle_exit>

00000068 <__handle_isr>:
__handle_isr():
D:\Propel_Study\I2C_SPI_Programming_singlecore\Workspace\I2C_SPI_GPIO\Debug/../src/bsp/driver/riscv_mc/crt0.S:36
  csrw mepc, a0
      68:	2bd1                	jal	63c <irq_callback>

0000006a <__handle_exit>:
__handle_exit():
D:\Propel_Study\I2C_SPI_Programming_singlecore\Workspace\I2C_SPI_GPIO\Debug/../src/bsp/driver/riscv_mc/crt0.S:36
      6a:	50f2                	lw	ra,60(sp)
D:\Propel_Study\I2C_SPI_Programming_singlecore\Workspace\I2C_SPI_GPIO\Debug/../src/bsp/driver/riscv_mc/crt0.S:37
  j    __handle_exit
      6c:	52e2                	lw	t0,56(sp)
D:\Propel_Study\I2C_SPI_Programming_singlecore\Workspace\I2C_SPI_GPIO\Debug/../src/bsp/driver/riscv_mc/crt0.S:39
__handle_isr:
  call irq_callback
      6e:	5352                	lw	t1,52(sp)
      70:	53c2                	lw	t2,48(sp)
      72:	5532                	lw	a0,44(sp)
      74:	55a2                	lw	a1,40(sp)
D:\Propel_Study\I2C_SPI_Programming_singlecore\Workspace\I2C_SPI_GPIO\Debug/../src/bsp/driver/riscv_mc/crt0.S:41
__handle_exit:
  lw x1 , 15*4(sp)
      76:	5612                	lw	a2,36(sp)
D:\Propel_Study\I2C_SPI_Programming_singlecore\Workspace\I2C_SPI_GPIO\Debug/../src/bsp/driver/riscv_mc/crt0.S:42
  lw x5,  14*4(sp)
      78:	5682                	lw	a3,32(sp)
D:\Propel_Study\I2C_SPI_Programming_singlecore\Workspace\I2C_SPI_GPIO\Debug/../src/bsp/driver/riscv_mc/crt0.S:43
  lw x6,  13*4(sp)
      7a:	4772                	lw	a4,28(sp)
D:\Propel_Study\I2C_SPI_Programming_singlecore\Workspace\I2C_SPI_GPIO\Debug/../src/bsp/driver/riscv_mc/crt0.S:44
  lw x7,  12*4(sp)
      7c:	47e2                	lw	a5,24(sp)
D:\Propel_Study\I2C_SPI_Programming_singlecore\Workspace\I2C_SPI_GPIO\Debug/../src/bsp/driver/riscv_mc/crt0.S:45
  lw x10, 11*4(sp)
      7e:	4852                	lw	a6,20(sp)
D:\Propel_Study\I2C_SPI_Programming_singlecore\Workspace\I2C_SPI_GPIO\Debug/../src/bsp/driver/riscv_mc/crt0.S:46
  lw x11, 10*4(sp)
      80:	48c2                	lw	a7,16(sp)
D:\Propel_Study\I2C_SPI_Programming_singlecore\Workspace\I2C_SPI_GPIO\Debug/../src/bsp/driver/riscv_mc/crt0.S:47
  lw x12,  9*4(sp)
      82:	4e32                	lw	t3,12(sp)
D:\Propel_Study\I2C_SPI_Programming_singlecore\Workspace\I2C_SPI_GPIO\Debug/../src/bsp/driver/riscv_mc/crt0.S:48
  lw x13,  8*4(sp)
      84:	4ea2                	lw	t4,8(sp)
D:\Propel_Study\I2C_SPI_Programming_singlecore\Workspace\I2C_SPI_GPIO\Debug/../src/bsp/driver/riscv_mc/crt0.S:49
  lw x14,  7*4(sp)
      86:	4f12                	lw	t5,4(sp)
D:\Propel_Study\I2C_SPI_Programming_singlecore\Workspace\I2C_SPI_GPIO\Debug/../src/bsp/driver/riscv_mc/crt0.S:50
  lw x15,  6*4(sp)
      88:	4f82                	lw	t6,0(sp)
D:\Propel_Study\I2C_SPI_Programming_singlecore\Workspace\I2C_SPI_GPIO\Debug/../src/bsp/driver/riscv_mc/crt0.S:51
  lw x16,  5*4(sp)
      8a:	6121                	addi	sp,sp,64
D:\Propel_Study\I2C_SPI_Programming_singlecore\Workspace\I2C_SPI_GPIO\Debug/../src/bsp/driver/riscv_mc/crt0.S:52
  lw x17,  4*4(sp)
      8c:	30200073          	mret

00000090 <uart_init>:
uart_init():
D:\Propel_Study\I2C_SPI_Programming_singlecore\Workspace\I2C_SPI_GPIO\Debug/../src/bsp/driver/uart/uart.c:173
unsigned char uart_init(struct uart_instance *this_uart,
			unsigned int base_addr,
			unsigned int sys_clk,
			unsigned int baud_rate,
			unsigned char stop_bits, unsigned char data_width)
{
      90:	7139                	addi	sp,sp,-64
      92:	de22                	sw	s0,60(sp)
      94:	0080                	addi	s0,sp,64
      96:	fca42e23          	sw	a0,-36(s0)
      9a:	fcb42c23          	sw	a1,-40(s0)
      9e:	fcc42a23          	sw	a2,-44(s0)
      a2:	fcd42823          	sw	a3,-48(s0)
      a6:	86ba                	mv	a3,a4
      a8:	873e                	mv	a4,a5
      aa:	87b6                	mv	a5,a3
      ac:	fcf407a3          	sb	a5,-49(s0)
      b0:	87ba                	mv	a5,a4
      b2:	fcf40723          	sb	a5,-50(s0)
D:\Propel_Study\I2C_SPI_Programming_singlecore\Workspace\I2C_SPI_GPIO\Debug/../src/bsp/driver/uart/uart.c:175
	volatile struct uart_dev *dev;
	if (NULL == this_uart) {
      b6:	fdc42783          	lw	a5,-36(s0)
      ba:	e399                	bnez	a5,c0 <uart_init+0x30>
D:\Propel_Study\I2C_SPI_Programming_singlecore\Workspace\I2C_SPI_GPIO\Debug/../src/bsp/driver/uart/uart.c:176
		return 1;
      bc:	4785                	li	a5,1
      be:	a891                	j	112 <uart_init+0x82>
D:\Propel_Study\I2C_SPI_Programming_singlecore\Workspace\I2C_SPI_GPIO\Debug/../src/bsp/driver/uart/uart.c:178
	}
	this_uart->base = base_addr;
      c0:	fdc42783          	lw	a5,-36(s0)
      c4:	fd842703          	lw	a4,-40(s0)
      c8:	c3d8                	sw	a4,4(a5)
D:\Propel_Study\I2C_SPI_Programming_singlecore\Workspace\I2C_SPI_GPIO\Debug/../src/bsp/driver/uart/uart.c:179
	dev = (volatile struct uart_dev *) (this_uart->base);
      ca:	fdc42783          	lw	a5,-36(s0)
      ce:	43dc                	lw	a5,4(a5)
      d0:	fef42623          	sw	a5,-20(s0)
D:\Propel_Study\I2C_SPI_Programming_singlecore\Workspace\I2C_SPI_GPIO\Debug/../src/bsp/driver/uart/uart.c:182

	/*initialize the instance data */
	this_uart->base = base_addr;
      d4:	fdc42783          	lw	a5,-36(s0)
      d8:	fd842703          	lw	a4,-40(s0)
      dc:	c3d8                	sw	a4,4(a5)
D:\Propel_Study\I2C_SPI_Programming_singlecore\Workspace\I2C_SPI_GPIO\Debug/../src/bsp/driver/uart/uart.c:183
	this_uart->sys_clk = sys_clk;
      de:	fdc42783          	lw	a5,-36(s0)
      e2:	fd442703          	lw	a4,-44(s0)
      e6:	c798                	sw	a4,8(a5)
D:\Propel_Study\I2C_SPI_Programming_singlecore\Workspace\I2C_SPI_GPIO\Debug/../src/bsp/driver/uart/uart.c:184
	this_uart->baudrate = baud_rate;
      e8:	fdc42783          	lw	a5,-36(s0)
      ec:	fd042703          	lw	a4,-48(s0)
      f0:	cb98                	sw	a4,16(a5)
D:\Propel_Study\I2C_SPI_Programming_singlecore\Workspace\I2C_SPI_GPIO\Debug/../src/bsp/driver/uart/uart.c:185
	this_uart->databits = data_width;
      f2:	fce44703          	lbu	a4,-50(s0)
      f6:	fdc42783          	lw	a5,-36(s0)
      fa:	cbd8                	sw	a4,20(a5)
D:\Propel_Study\I2C_SPI_Programming_singlecore\Workspace\I2C_SPI_GPIO\Debug/../src/bsp/driver/uart/uart.c:186
	this_uart->stopbits = stop_bits;
      fc:	fcf44703          	lbu	a4,-49(s0)
     100:	fdc42783          	lw	a5,-36(s0)
     104:	cf98                	sw	a4,24(a5)
D:\Propel_Study\I2C_SPI_Programming_singlecore\Workspace\I2C_SPI_GPIO\Debug/../src/bsp/driver/uart/uart.c:191

	/* set the data-configuration */
	//uart_config(this_uart, 8, 0, 0, 1);

	this_uart->blockingTx = 1;
     106:	fdc42783          	lw	a5,-36(s0)
     10a:	4705                	li	a4,1
     10c:	00e78f23          	sb	a4,30(a5)
D:\Propel_Study\I2C_SPI_Programming_singlecore\Workspace\I2C_SPI_GPIO\Debug/../src/bsp/driver/uart/uart.c:218
		pic_isr_register(this_uart->intrLevel, uart_isr, this_uart);	//uart_isr have two parameter!!!!!
	}
#endif

	/* all done! */
	return 0;
     110:	4781                	li	a5,0
D:\Propel_Study\I2C_SPI_Programming_singlecore\Workspace\I2C_SPI_GPIO\Debug/../src/bsp/driver/uart/uart.c:219
}
     112:	853e                	mv	a0,a5
     114:	5472                	lw	s0,60(sp)
     116:	6121                	addi	sp,sp,64
     118:	8082                	ret

0000011a <uart_putc>:
uart_putc():
D:\Propel_Study\I2C_SPI_Programming_singlecore\Workspace\I2C_SPI_GPIO\Debug/../src/bsp/driver/uart/uart.c:291
 * Returns 0 if no error
 ***************************************************************
*/
unsigned char uart_putc(struct uart_instance *this_uart,
			unsigned char ucChar)
{
     11a:	7179                	addi	sp,sp,-48
     11c:	d622                	sw	s0,44(sp)
     11e:	1800                	addi	s0,sp,48
     120:	fca42e23          	sw	a0,-36(s0)
     124:	87ae                	mv	a5,a1
     126:	fcf40da3          	sb	a5,-37(s0)
D:\Propel_Study\I2C_SPI_Programming_singlecore\Workspace\I2C_SPI_GPIO\Debug/../src/bsp/driver/uart/uart.c:294
	volatile unsigned char uiValue;
	volatile struct uart_dev *dev;
	if (NULL == this_uart) {
     12a:	fdc42783          	lw	a5,-36(s0)
     12e:	e399                	bnez	a5,134 <uart_putc+0x1a>
D:\Propel_Study\I2C_SPI_Programming_singlecore\Workspace\I2C_SPI_GPIO\Debug/../src/bsp/driver/uart/uart.c:295
		return 1;
     130:	4785                	li	a5,1
     132:	a089                	j	174 <uart_putc+0x5a>
D:\Propel_Study\I2C_SPI_Programming_singlecore\Workspace\I2C_SPI_GPIO\Debug/../src/bsp/driver/uart/uart.c:297
	}
	dev = (volatile struct uart_dev *) (this_uart->base);
     134:	fdc42783          	lw	a5,-36(s0)
     138:	43dc                	lw	a5,4(a5)
     13a:	fef42623          	sw	a5,-20(s0)
D:\Propel_Study\I2C_SPI_Programming_singlecore\Workspace\I2C_SPI_GPIO\Debug/../src/bsp/driver/uart/uart.c:329
	} else
#endif
	{
		do {
			/* if uart's ready to accept character, send immediately */
			uiValue = dev->lsr;
     13e:	fec42783          	lw	a5,-20(s0)
     142:	4bdc                	lw	a5,20(a5)
     144:	0ff7f793          	zext.b	a5,a5
     148:	fef405a3          	sb	a5,-21(s0)
D:\Propel_Study\I2C_SPI_Programming_singlecore\Workspace\I2C_SPI_GPIO\Debug/../src/bsp/driver/uart/uart.c:330
			if (uiValue & UART_LSR_TX_RDY_MASK) {
     14c:	feb44783          	lbu	a5,-21(s0)
     150:	0ff7f793          	zext.b	a5,a5
     154:	0207f793          	andi	a5,a5,32
     158:	cb81                	beqz	a5,168 <uart_putc+0x4e>
D:\Propel_Study\I2C_SPI_Programming_singlecore\Workspace\I2C_SPI_GPIO\Debug/../src/bsp/driver/uart/uart.c:331
				dev->rxtx = ucChar;
     15a:	fdb44703          	lbu	a4,-37(s0)
     15e:	fec42783          	lw	a5,-20(s0)
     162:	c398                	sw	a4,0(a5)
D:\Propel_Study\I2C_SPI_Programming_singlecore\Workspace\I2C_SPI_GPIO\Debug/../src/bsp/driver/uart/uart.c:332
				return (0);
     164:	4781                	li	a5,0
     166:	a039                	j	174 <uart_putc+0x5a>
D:\Propel_Study\I2C_SPI_Programming_singlecore\Workspace\I2C_SPI_GPIO\Debug/../src/bsp/driver/uart/uart.c:336
			}

			/* if non-blocking tx, return immediately */
			if (this_uart->blockingTx == 0)
     168:	fdc42783          	lw	a5,-36(s0)
     16c:	01e7c783          	lbu	a5,30(a5)
     170:	f7f9                	bnez	a5,13e <uart_putc+0x24>
D:\Propel_Study\I2C_SPI_Programming_singlecore\Workspace\I2C_SPI_GPIO\Debug/../src/bsp/driver/uart/uart.c:337
				return (UART_ERR_WOULD_BLOCK);
     172:	4785                	li	a5,1
D:\Propel_Study\I2C_SPI_Programming_singlecore\Workspace\I2C_SPI_GPIO\Debug/../src/bsp/driver/uart/uart.c:344
		} while (1);
	}

	/* all done */
	return 0;
}
     174:	853e                	mv	a0,a5
     176:	5432                	lw	s0,44(sp)
     178:	6145                	addi	sp,sp,48
     17a:	8082                	ret

0000017c <spi_master_init>:
spi_master_init():
D:\Propel_Study\I2C_SPI_Programming_singlecore\Workspace\I2C_SPI_GPIO\Debug/../src/bsp/driver/spi_controller/spi_master.c:48
			uint32_t *rx_buf,
			uint32_t prescaler,
			uint32_t spi_rx_fifo_afull_flag,
			uint32_t spi_rx_fifo_depth,
			uint32_t spi_tx_fifo_depth)
{
     17c:	7179                	addi	sp,sp,-48
     17e:	d622                	sw	s0,44(sp)
     180:	1800                	addi	s0,sp,48
     182:	fea42623          	sw	a0,-20(s0)
     186:	feb42423          	sw	a1,-24(s0)
     18a:	fed42023          	sw	a3,-32(s0)
     18e:	fce42e23          	sw	a4,-36(s0)
     192:	fcf42c23          	sw	a5,-40(s0)
     196:	fd042a23          	sw	a6,-44(s0)
     19a:	fd142823          	sw	a7,-48(s0)
     19e:	87b2                	mv	a5,a2
     1a0:	fef403a3          	sb	a5,-25(s0)
D:\Propel_Study\I2C_SPI_Programming_singlecore\Workspace\I2C_SPI_GPIO\Debug/../src/bsp/driver/spi_controller/spi_master.c:49
	if(this_spim == NULL)
     1a4:	fec42783          	lw	a5,-20(s0)
     1a8:	e399                	bnez	a5,1ae <spi_master_init+0x32>
D:\Propel_Study\I2C_SPI_Programming_singlecore\Workspace\I2C_SPI_GPIO\Debug/../src/bsp/driver/spi_controller/spi_master.c:50
		return PTR_ERROR;
     1aa:	4785                	li	a5,1
     1ac:	a8a9                	j	206 <spi_master_init+0x8a>
D:\Propel_Study\I2C_SPI_Programming_singlecore\Workspace\I2C_SPI_GPIO\Debug/../src/bsp/driver/spi_controller/spi_master.c:52

	if(spi_rx_fifo_depth < spi_rx_fifo_afull_flag)
     1ae:	fd042703          	lw	a4,-48(s0)
     1b2:	fd442783          	lw	a5,-44(s0)
     1b6:	00f77463          	bgeu	a4,a5,1be <spi_master_init+0x42>
D:\Propel_Study\I2C_SPI_Programming_singlecore\Workspace\I2C_SPI_GPIO\Debug/../src/bsp/driver/spi_controller/spi_master.c:53
		return SPI_RX_FIFO_ERR;
     1ba:	478d                	li	a5,3
     1bc:	a0a9                	j	206 <spi_master_init+0x8a>
D:\Propel_Study\I2C_SPI_Programming_singlecore\Workspace\I2C_SPI_GPIO\Debug/../src/bsp/driver/spi_controller/spi_master.c:55

	this_spim->base_address = base_addr;
     1be:	fec42783          	lw	a5,-20(s0)
     1c2:	fe842703          	lw	a4,-24(s0)
     1c6:	c398                	sw	a4,0(a5)
D:\Propel_Study\I2C_SPI_Programming_singlecore\Workspace\I2C_SPI_GPIO\Debug/../src/bsp/driver/spi_controller/spi_master.c:56
	this_spim->slave_count = slave_count;
     1c8:	fec42783          	lw	a5,-20(s0)
     1cc:	fe744703          	lbu	a4,-25(s0)
     1d0:	00e782a3          	sb	a4,5(a5)
D:\Propel_Study\I2C_SPI_Programming_singlecore\Workspace\I2C_SPI_GPIO\Debug/../src/bsp/driver/spi_controller/spi_master.c:57
	this_spim->spim_rxbuf = rx_buf;
     1d4:	fec42783          	lw	a5,-20(s0)
     1d8:	fdc42703          	lw	a4,-36(s0)
     1dc:	d798                	sw	a4,40(a5)
D:\Propel_Study\I2C_SPI_Programming_singlecore\Workspace\I2C_SPI_GPIO\Debug/../src/bsp/driver/spi_controller/spi_master.c:58
	this_spim->spim_txbuf = tx_buf;
     1de:	fec42783          	lw	a5,-20(s0)
     1e2:	fe042703          	lw	a4,-32(s0)
     1e6:	d398                	sw	a4,32(a5)
D:\Propel_Study\I2C_SPI_Programming_singlecore\Workspace\I2C_SPI_GPIO\Debug/../src/bsp/driver/spi_controller/spi_master.c:59
	this_spim->spim_rx_fifo_afull_flag = spi_rx_fifo_afull_flag;
     1e8:	fec42783          	lw	a5,-20(s0)
     1ec:	fd442703          	lw	a4,-44(s0)
     1f0:	cbd8                	sw	a4,20(a5)
D:\Propel_Study\I2C_SPI_Programming_singlecore\Workspace\I2C_SPI_GPIO\Debug/../src/bsp/driver/spi_controller/spi_master.c:60
	this_spim->spi_rx_fifo_depth = spi_rx_fifo_depth;
     1f2:	fec42783          	lw	a5,-20(s0)
     1f6:	fd042703          	lw	a4,-48(s0)
     1fa:	cf98                	sw	a4,24(a5)
D:\Propel_Study\I2C_SPI_Programming_singlecore\Workspace\I2C_SPI_GPIO\Debug/../src/bsp/driver/spi_controller/spi_master.c:61
	this_spim->spi_tx_fifo_depth = spi_tx_fifo_depth;
     1fc:	fec42783          	lw	a5,-20(s0)
     200:	4018                	lw	a4,0(s0)
     202:	cfd8                	sw	a4,28(a5)
D:\Propel_Study\I2C_SPI_Programming_singlecore\Workspace\I2C_SPI_GPIO\Debug/../src/bsp/driver/spi_controller/spi_master.c:63

	return SUCCESS;
     204:	4781                	li	a5,0
D:\Propel_Study\I2C_SPI_Programming_singlecore\Workspace\I2C_SPI_GPIO\Debug/../src/bsp/driver/spi_controller/spi_master.c:64
}
     206:	853e                	mv	a0,a5
     208:	5432                	lw	s0,44(sp)
     20a:	6145                	addi	sp,sp,48
     20c:	8082                	ret

0000020e <spi_master_config>:
spi_master_config():
D:\Propel_Study\I2C_SPI_Programming_singlecore\Workspace\I2C_SPI_GPIO\Debug/../src/bsp/driver/spi_controller/spi_master.c:70

uint8_t spi_master_config(struct spim_instance *this_spim,
                          spim_data_width data_width,
                          uint32_t prescaler,
                          uint8_t clk_polarity,uint8_t lsb_first, uint8_t clk_phase,uint8_t ssnp, uint8_t only_write ,uint8_t spi_en)
{
     20e:	7139                	addi	sp,sp,-64
     210:	de06                	sw	ra,60(sp)
     212:	dc22                	sw	s0,56(sp)
     214:	0080                	addi	s0,sp,64
     216:	fca42e23          	sw	a0,-36(s0)
     21a:	fcb42c23          	sw	a1,-40(s0)
     21e:	fcc42a23          	sw	a2,-44(s0)
     222:	8536                	mv	a0,a3
     224:	85ba                	mv	a1,a4
     226:	863e                	mv	a2,a5
     228:	86c2                	mv	a3,a6
     22a:	8746                	mv	a4,a7
     22c:	87aa                	mv	a5,a0
     22e:	fcf409a3          	sb	a5,-45(s0)
     232:	87ae                	mv	a5,a1
     234:	fcf40923          	sb	a5,-46(s0)
     238:	87b2                	mv	a5,a2
     23a:	fcf408a3          	sb	a5,-47(s0)
     23e:	87b6                	mv	a5,a3
     240:	fcf40823          	sb	a5,-48(s0)
     244:	87ba                	mv	a5,a4
     246:	fcf407a3          	sb	a5,-49(s0)
D:\Propel_Study\I2C_SPI_Programming_singlecore\Workspace\I2C_SPI_GPIO\Debug/../src/bsp/driver/spi_controller/spi_master.c:71
	uint8_t spi_config = 0;
     24a:	fe0407a3          	sb	zero,-17(s0)
D:\Propel_Study\I2C_SPI_Programming_singlecore\Workspace\I2C_SPI_GPIO\Debug/../src/bsp/driver/spi_controller/spi_master.c:73

	if(this_spim == NULL)
     24e:	fdc42783          	lw	a5,-36(s0)
     252:	e399                	bnez	a5,258 <spi_master_config+0x4a>
D:\Propel_Study\I2C_SPI_Programming_singlecore\Workspace\I2C_SPI_GPIO\Debug/../src/bsp/driver/spi_controller/spi_master.c:74
		return PTR_ERROR;
     254:	4785                	li	a5,1
     256:	aa35                	j	392 <spi_master_config+0x184>
D:\Propel_Study\I2C_SPI_Programming_singlecore\Workspace\I2C_SPI_GPIO\Debug/../src/bsp/driver/spi_controller/spi_master.c:77


	this_spim->data_width = data_width;
     258:	fd842783          	lw	a5,-40(s0)
     25c:	0ff7f713          	zext.b	a4,a5
     260:	fdc42783          	lw	a5,-36(s0)
     264:	00e78223          	sb	a4,4(a5)
D:\Propel_Study\I2C_SPI_Programming_singlecore\Workspace\I2C_SPI_GPIO\Debug/../src/bsp/driver/spi_controller/spi_master.c:78
	this_spim->spi_clk_polarity = clk_polarity;
     268:	fdc42783          	lw	a5,-36(s0)
     26c:	fd344703          	lbu	a4,-45(s0)
     270:	00e787a3          	sb	a4,15(a5)
D:\Propel_Study\I2C_SPI_Programming_singlecore\Workspace\I2C_SPI_GPIO\Debug/../src/bsp/driver/spi_controller/spi_master.c:79
	this_spim->spi_clk_phase = clk_phase;
     274:	fdc42783          	lw	a5,-36(s0)
     278:	fd144703          	lbu	a4,-47(s0)
     27c:	00e78823          	sb	a4,16(a5)
D:\Propel_Study\I2C_SPI_Programming_singlecore\Workspace\I2C_SPI_GPIO\Debug/../src/bsp/driver/spi_controller/spi_master.c:82

	spi_config =
			 (spi_en << 7) | (lsb_first << 6) |  (only_write << 5) | (data_width << 3) | (ssnp<<2) |(clk_polarity << 1) | clk_phase;
     280:	00044783          	lbu	a5,0(s0)
     284:	079e                	slli	a5,a5,0x7
     286:	01879713          	slli	a4,a5,0x18
     28a:	8761                	srai	a4,a4,0x18
     28c:	fd244783          	lbu	a5,-46(s0)
     290:	079a                	slli	a5,a5,0x6
     292:	07e2                	slli	a5,a5,0x18
     294:	87e1                	srai	a5,a5,0x18
     296:	8fd9                	or	a5,a5,a4
     298:	01879713          	slli	a4,a5,0x18
     29c:	8761                	srai	a4,a4,0x18
     29e:	fcf44783          	lbu	a5,-49(s0)
     2a2:	0796                	slli	a5,a5,0x5
     2a4:	07e2                	slli	a5,a5,0x18
     2a6:	87e1                	srai	a5,a5,0x18
     2a8:	8fd9                	or	a5,a5,a4
     2aa:	07e2                	slli	a5,a5,0x18
     2ac:	87e1                	srai	a5,a5,0x18
     2ae:	0ff7f713          	zext.b	a4,a5
     2b2:	fd842783          	lw	a5,-40(s0)
     2b6:	0ff7f793          	zext.b	a5,a5
     2ba:	078e                	slli	a5,a5,0x3
     2bc:	0ff7f793          	zext.b	a5,a5
     2c0:	8fd9                	or	a5,a5,a4
     2c2:	0ff7f713          	zext.b	a4,a5
     2c6:	fd044783          	lbu	a5,-48(s0)
     2ca:	078a                	slli	a5,a5,0x2
     2cc:	0ff7f793          	zext.b	a5,a5
     2d0:	8fd9                	or	a5,a5,a4
     2d2:	0ff7f713          	zext.b	a4,a5
     2d6:	fd344783          	lbu	a5,-45(s0)
     2da:	0786                	slli	a5,a5,0x1
     2dc:	0ff7f793          	zext.b	a5,a5
     2e0:	8fd9                	or	a5,a5,a4
     2e2:	0ff7f713          	zext.b	a4,a5
D:\Propel_Study\I2C_SPI_Programming_singlecore\Workspace\I2C_SPI_GPIO\Debug/../src/bsp/driver/spi_controller/spi_master.c:81
	spi_config =
     2e6:	fd144783          	lbu	a5,-47(s0)
     2ea:	8fd9                	or	a5,a5,a4
     2ec:	fef407a3          	sb	a5,-17(s0)
D:\Propel_Study\I2C_SPI_Programming_singlecore\Workspace\I2C_SPI_GPIO\Debug/../src/bsp/driver/spi_controller/spi_master.c:83
	reg_32b_modify(this_spim->base_address | SPI_MASTER_SPI_CFG,SPI_CFG_DATA_WIDTH_MASK | SPI_CFG_LSB_FIRST_MASK | SPI_CFG_CPOL_MASK | SPI_CFG_CPHA_MASK | SPI_CFG_SSNP_MASK | SPI_CFG_SPI_EN_MASK | SPI_CFG_WR_ONLY_MASK, spi_config);
     2f0:	fdc42783          	lw	a5,-36(s0)
     2f4:	439c                	lw	a5,0(a5)
     2f6:	0087e793          	ori	a5,a5,8
     2fa:	fef44703          	lbu	a4,-17(s0)
     2fe:	863a                	mv	a2,a4
     300:	0ff00593          	li	a1,255
     304:	853e                	mv	a0,a5
     306:	23d1                	jal	8ca <reg_32b_modify>
D:\Propel_Study\I2C_SPI_Programming_singlecore\Workspace\I2C_SPI_GPIO\Debug/../src/bsp/driver/spi_controller/spi_master.c:86

	// clear the tx/rx fifo
	reg_8b_write(this_spim->base_address | SPI_MASTER_FIFO_RST,
     308:	fdc42783          	lw	a5,-36(s0)
     30c:	439c                	lw	a5,0(a5)
     30e:	02c7e793          	ori	a5,a5,44
     312:	458d                	li	a1,3
     314:	853e                	mv	a0,a5
     316:	2bed                	jal	910 <reg_8b_write>
D:\Propel_Study\I2C_SPI_Programming_singlecore\Workspace\I2C_SPI_GPIO\Debug/../src/bsp/driver/spi_controller/spi_master.c:90
	                 SPI_MASTER_TX_FIFO_RST|SPI_MASTER_RX_FIFO_RST);

	// enable all the INTs by default
	reg_8b_write(this_spim->base_address | SPI_MASTER_INT_ENABLE,BITS_ALL_SET);
     318:	fdc42783          	lw	a5,-36(s0)
     31c:	439c                	lw	a5,0(a5)
     31e:	0187e793          	ori	a5,a5,24
     322:	0ff00593          	li	a1,255
     326:	853e                	mv	a0,a5
     328:	23e5                	jal	910 <reg_8b_write>
D:\Propel_Study\I2C_SPI_Programming_singlecore\Workspace\I2C_SPI_GPIO\Debug/../src/bsp/driver/spi_controller/spi_master.c:92

	reg_8b_write(this_spim->base_address | SPI_MASTER_BYTE_COUNT_RST,BITS_ALL_SET);
     32a:	fdc42783          	lw	a5,-36(s0)
     32e:	439c                	lw	a5,0(a5)
     330:	0247e793          	ori	a5,a5,36
     334:	0ff00593          	li	a1,255
     338:	853e                	mv	a0,a5
     33a:	2bd9                	jal	910 <reg_8b_write>
D:\Propel_Study\I2C_SPI_Programming_singlecore\Workspace\I2C_SPI_GPIO\Debug/../src/bsp/driver/spi_controller/spi_master.c:95

	// manually clear the FIFO reset flag
	reg_8b_write(this_spim->base_address | SPI_MASTER_FIFO_RST, BITS_ALL_CLEAR);
     33c:	fdc42783          	lw	a5,-36(s0)
     340:	439c                	lw	a5,0(a5)
     342:	02c7e793          	ori	a5,a5,44
     346:	4581                	li	a1,0
     348:	853e                	mv	a0,a5
     34a:	23d9                	jal	910 <reg_8b_write>
D:\Propel_Study\I2C_SPI_Programming_singlecore\Workspace\I2C_SPI_GPIO\Debug/../src/bsp/driver/spi_controller/spi_master.c:96
    reg_8b_write(this_spim->base_address | SPI_MASTER_CLK_PRESCALER_LOW, prescaler & BITS_ALL_SET);
     34c:	fdc42783          	lw	a5,-36(s0)
     350:	439c                	lw	a5,0(a5)
     352:	00c7e793          	ori	a5,a5,12
     356:	fd442703          	lw	a4,-44(s0)
     35a:	0ff77713          	zext.b	a4,a4
     35e:	85ba                	mv	a1,a4
     360:	853e                	mv	a0,a5
     362:	237d                	jal	910 <reg_8b_write>
D:\Propel_Study\I2C_SPI_Programming_singlecore\Workspace\I2C_SPI_GPIO\Debug/../src/bsp/driver/spi_controller/spi_master.c:97
    reg_8b_write(this_spim->base_address | SPI_MASTER_CLK_PRESCALER_HIGH, prescaler >> 8);
     364:	fdc42783          	lw	a5,-36(s0)
     368:	439c                	lw	a5,0(a5)
     36a:	0107e713          	ori	a4,a5,16
     36e:	fd442783          	lw	a5,-44(s0)
     372:	83a1                	srli	a5,a5,0x8
     374:	0ff7f793          	zext.b	a5,a5
     378:	85be                	mv	a1,a5
     37a:	853a                	mv	a0,a4
     37c:	2b51                	jal	910 <reg_8b_write>
D:\Propel_Study\I2C_SPI_Programming_singlecore\Workspace\I2C_SPI_GPIO\Debug/../src/bsp/driver/spi_controller/spi_master.c:98
    reg_8b_write(this_spim->base_address | SPI_MASTER_BYTE_COUNT_RST, BITS_ALL_SET);
     37e:	fdc42783          	lw	a5,-36(s0)
     382:	439c                	lw	a5,0(a5)
     384:	0247e793          	ori	a5,a5,36
     388:	0ff00593          	li	a1,255
     38c:	853e                	mv	a0,a5
     38e:	2349                	jal	910 <reg_8b_write>
D:\Propel_Study\I2C_SPI_Programming_singlecore\Workspace\I2C_SPI_GPIO\Debug/../src/bsp/driver/spi_controller/spi_master.c:99
	return SUCCESS;
     390:	4781                	li	a5,0
D:\Propel_Study\I2C_SPI_Programming_singlecore\Workspace\I2C_SPI_GPIO\Debug/../src/bsp/driver/spi_controller/spi_master.c:100
}
     392:	853e                	mv	a0,a5
     394:	50f2                	lw	ra,60(sp)
     396:	5462                	lw	s0,56(sp)
     398:	6121                	addi	sp,sp,64
     39a:	8082                	ret

0000039c <spi_master_transfer_blocking>:
spi_master_transfer_blocking():
D:\Propel_Study\I2C_SPI_Programming_singlecore\Workspace\I2C_SPI_GPIO\Debug/../src/bsp/driver/spi_controller/spi_master.c:160
uint8_t spi_master_transfer_blocking(struct spim_instance *this_spim,
			    uint8_t *data_buffer_out,
			    uint8_t byte_out_size,
			    uint8_t *data_buffer_in,
			    uint8_t byte_in_size)
{
     39c:	7139                	addi	sp,sp,-64
     39e:	de06                	sw	ra,60(sp)
     3a0:	dc22                	sw	s0,56(sp)
     3a2:	0080                	addi	s0,sp,64
     3a4:	fca42623          	sw	a0,-52(s0)
     3a8:	fcb42423          	sw	a1,-56(s0)
     3ac:	87b2                	mv	a5,a2
     3ae:	fcd42023          	sw	a3,-64(s0)
     3b2:	fcf403a3          	sb	a5,-57(s0)
     3b6:	87ba                	mv	a5,a4
     3b8:	fcf40323          	sb	a5,-58(s0)
D:\Propel_Study\I2C_SPI_Programming_singlecore\Workspace\I2C_SPI_GPIO\Debug/../src/bsp/driver/spi_controller/spi_master.c:161
	uint32_t byte_out_cnt = 0;
     3bc:	fe042623          	sw	zero,-20(s0)
D:\Propel_Study\I2C_SPI_Programming_singlecore\Workspace\I2C_SPI_GPIO\Debug/../src/bsp/driver/spi_controller/spi_master.c:162
	uint32_t byte_in_cnt = 0;
     3c0:	fe042423          	sw	zero,-24(s0)
D:\Propel_Study\I2C_SPI_Programming_singlecore\Workspace\I2C_SPI_GPIO\Debug/../src/bsp/driver/spi_controller/spi_master.c:164
	uint32_t value;
	uint8_t int_status = 0;
     3c4:	fe0403a3          	sb	zero,-25(s0)
D:\Propel_Study\I2C_SPI_Programming_singlecore\Workspace\I2C_SPI_GPIO\Debug/../src/bsp/driver/spi_controller/spi_master.c:167
	uint8_t fifo;

	if(this_spim->spim_current_status == SPIM_STATE_BUSY){
     3c8:	fcc42783          	lw	a5,-52(s0)
     3cc:	0117c703          	lbu	a4,17(a5)
     3d0:	4785                	li	a5,1
     3d2:	00f71463          	bne	a4,a5,3da <spi_master_transfer_blocking+0x3e>
D:\Propel_Study\I2C_SPI_Programming_singlecore\Workspace\I2C_SPI_GPIO\Debug/../src/bsp/driver/spi_controller/spi_master.c:168
			return STATE_ERROR;
     3d6:	4789                	li	a5,2
     3d8:	a431                	j	5e4 <spi_master_transfer_blocking+0x248>
D:\Propel_Study\I2C_SPI_Programming_singlecore\Workspace\I2C_SPI_GPIO\Debug/../src/bsp/driver/spi_controller/spi_master.c:170
	}
	if(this_spim == NULL)
     3da:	fcc42783          	lw	a5,-52(s0)
     3de:	e399                	bnez	a5,3e4 <spi_master_transfer_blocking+0x48>
D:\Propel_Study\I2C_SPI_Programming_singlecore\Workspace\I2C_SPI_GPIO\Debug/../src/bsp/driver/spi_controller/spi_master.c:171
		return PTR_ERROR;
     3e0:	4785                	li	a5,1
     3e2:	a409                	j	5e4 <spi_master_transfer_blocking+0x248>
D:\Propel_Study\I2C_SPI_Programming_singlecore\Workspace\I2C_SPI_GPIO\Debug/../src/bsp/driver/spi_controller/spi_master.c:174

    // clear the tx/rx fifo
    reg_8b_write(this_spim->base_address | SPI_MASTER_FIFO_RST,
     3e4:	fcc42783          	lw	a5,-52(s0)
     3e8:	439c                	lw	a5,0(a5)
     3ea:	02c7e793          	ori	a5,a5,44
     3ee:	458d                	li	a1,3
     3f0:	853e                	mv	a0,a5
     3f2:	2b39                	jal	910 <reg_8b_write>
D:\Propel_Study\I2C_SPI_Programming_singlecore\Workspace\I2C_SPI_GPIO\Debug/../src/bsp/driver/spi_controller/spi_master.c:178
                     SPI_MASTER_TX_FIFO_RST|SPI_MASTER_RX_FIFO_RST);

	// clear all the interrupt bits
	reg_8b_write(this_spim->base_address | SPI_MASTER_INT_STATUS,
     3f4:	fcc42783          	lw	a5,-52(s0)
     3f8:	439c                	lw	a5,0(a5)
     3fa:	0147e793          	ori	a5,a5,20
     3fe:	0ff00593          	li	a1,255
     402:	853e                	mv	a0,a5
     404:	2331                	jal	910 <reg_8b_write>
D:\Propel_Study\I2C_SPI_Programming_singlecore\Workspace\I2C_SPI_GPIO\Debug/../src/bsp/driver/spi_controller/spi_master.c:182
		     BITS_ALL_SET);

    // clear the tx/rx fifo reset flag
    reg_8b_write(this_spim->base_address | SPI_MASTER_FIFO_RST, 0);
     406:	fcc42783          	lw	a5,-52(s0)
     40a:	439c                	lw	a5,0(a5)
     40c:	02c7e793          	ori	a5,a5,44
     410:	4581                	li	a1,0
     412:	853e                	mv	a0,a5
     414:	29f5                	jal	910 <reg_8b_write>
D:\Propel_Study\I2C_SPI_Programming_singlecore\Workspace\I2C_SPI_GPIO\Debug/../src/bsp/driver/spi_controller/spi_master.c:184

    reg_8b_write(this_spim->base_address | SPI_MASTER_BYTE_COUNT_RST, BITS_ALL_SET);
     416:	fcc42783          	lw	a5,-52(s0)
     41a:	439c                	lw	a5,0(a5)
     41c:	0247e793          	ori	a5,a5,36
     420:	0ff00593          	li	a1,255
     424:	853e                	mv	a0,a5
     426:	21ed                	jal	910 <reg_8b_write>
D:\Propel_Study\I2C_SPI_Programming_singlecore\Workspace\I2C_SPI_GPIO\Debug/../src/bsp/driver/spi_controller/spi_master.c:186
    // set the byte count register
    reg_8b_write(this_spim->base_address | SPI_MASTER_TARGET_WORD_COUNT,byte_out_size+byte_in_size);
     428:	fcc42783          	lw	a5,-52(s0)
     42c:	439c                	lw	a5,0(a5)
     42e:	0287e693          	ori	a3,a5,40
     432:	fc744703          	lbu	a4,-57(s0)
     436:	fc644783          	lbu	a5,-58(s0)
     43a:	97ba                	add	a5,a5,a4
     43c:	0ff7f793          	zext.b	a5,a5
     440:	85be                	mv	a1,a5
     442:	8536                	mv	a0,a3
     444:	21f1                	jal	910 <reg_8b_write>
D:\Propel_Study\I2C_SPI_Programming_singlecore\Workspace\I2C_SPI_GPIO\Debug/../src/bsp/driver/spi_controller/spi_master.c:190

	while(1)
	{
	    reg_8b_read(this_spim->base_address |
     446:	fcc42783          	lw	a5,-52(s0)
     44a:	439c                	lw	a5,0(a5)
     44c:	0147e793          	ori	a5,a5,20
     450:	fe740713          	addi	a4,s0,-25
     454:	85ba                	mv	a1,a4
     456:	853e                	mv	a0,a5
     458:	2ba9                	jal	9b2 <reg_8b_read>
D:\Propel_Study\I2C_SPI_Programming_singlecore\Workspace\I2C_SPI_GPIO\Debug/../src/bsp/driver/spi_controller/spi_master.c:193
	            SPI_MASTER_INT_STATUS, &int_status);
	    /* If the transmit buffer full interrupt is triggered */
	    if(int_status & (SPI_INT_TX_BUFFER_FULL))
     45a:	fe744783          	lbu	a5,-25(s0)
     45e:	0207f793          	andi	a5,a5,32
     462:	c385                	beqz	a5,482 <spi_master_transfer_blocking+0xe6>
D:\Propel_Study\I2C_SPI_Programming_singlecore\Workspace\I2C_SPI_GPIO\Debug/../src/bsp/driver/spi_controller/spi_master.c:196 (discriminator 1)
	    {
	    	do{
	   			 reg_8b_read(this_spim->base_address |
     464:	fcc42783          	lw	a5,-52(s0)
     468:	439c                	lw	a5,0(a5)
     46a:	0147e793          	ori	a5,a5,20
     46e:	fe740713          	addi	a4,s0,-25
     472:	85ba                	mv	a1,a4
     474:	853e                	mv	a0,a5
     476:	2b35                	jal	9b2 <reg_8b_read>
D:\Propel_Study\I2C_SPI_Programming_singlecore\Workspace\I2C_SPI_GPIO\Debug/../src/bsp/driver/spi_controller/spi_master.c:199 (discriminator 1)
	   			 		            SPI_MASTER_INT_STATUS, &int_status);
	   		 }
	   		 while(int_status & (SPI_INT_TX_BUFFER_FULL));
     478:	fe744783          	lbu	a5,-25(s0)
     47c:	0207f793          	andi	a5,a5,32
     480:	f3f5                	bnez	a5,464 <spi_master_transfer_blocking+0xc8>
D:\Propel_Study\I2C_SPI_Programming_singlecore\Workspace\I2C_SPI_GPIO\Debug/../src/bsp/driver/spi_controller/spi_master.c:202
	    }
	    /* If the receive buffer almost full interrupt is triggered */
	    if(int_status & (SPI_INT_RX_BUFFER_AFULL))
     482:	fe744783          	lbu	a5,-25(s0)
     486:	8b89                	andi	a5,a5,2
     488:	cfa1                	beqz	a5,4e0 <spi_master_transfer_blocking+0x144>
D:\Propel_Study\I2C_SPI_Programming_singlecore\Workspace\I2C_SPI_GPIO\Debug/../src/bsp/driver/spi_controller/spi_master.c:212
	    				SPI_MASTER_RD_DATA, data_buffer_in);

	    		data_buffer_in++;
	    	}*/

	        for (; byte_in_cnt < byte_out_size + byte_in_size; byte_in_cnt++) {
     48a:	a089                	j	4cc <spi_master_transfer_blocking+0x130>
D:\Propel_Study\I2C_SPI_Programming_singlecore\Workspace\I2C_SPI_GPIO\Debug/../src/bsp/driver/spi_controller/spi_master.c:214
	            uint32_t tmp;
	            reg_32b_read(this_spim->base_address |
     48c:	fcc42783          	lw	a5,-52(s0)
     490:	439c                	lw	a5,0(a5)
     492:	fe040713          	addi	a4,s0,-32
     496:	85ba                	mv	a1,a4
     498:	853e                	mv	a0,a5
     49a:	2111                	jal	89e <reg_32b_read>
D:\Propel_Study\I2C_SPI_Programming_singlecore\Workspace\I2C_SPI_GPIO\Debug/../src/bsp/driver/spi_controller/spi_master.c:217
	                SPI_MASTER_RD_DATA, &tmp);

	            if (byte_in_cnt >= byte_out_size) {
     49c:	fc744783          	lbu	a5,-57(s0)
     4a0:	fe842703          	lw	a4,-24(s0)
     4a4:	00f76f63          	bltu	a4,a5,4c2 <spi_master_transfer_blocking+0x126>
D:\Propel_Study\I2C_SPI_Programming_singlecore\Workspace\I2C_SPI_GPIO\Debug/../src/bsp/driver/spi_controller/spi_master.c:218
	                *data_buffer_in = tmp;
     4a8:	fe042783          	lw	a5,-32(s0)
     4ac:	0ff7f713          	zext.b	a4,a5
     4b0:	fc042783          	lw	a5,-64(s0)
     4b4:	00e78023          	sb	a4,0(a5)
D:\Propel_Study\I2C_SPI_Programming_singlecore\Workspace\I2C_SPI_GPIO\Debug/../src/bsp/driver/spi_controller/spi_master.c:219
	                data_buffer_in++;
     4b8:	fc042783          	lw	a5,-64(s0)
     4bc:	0785                	addi	a5,a5,1
     4be:	fcf42023          	sw	a5,-64(s0)
D:\Propel_Study\I2C_SPI_Programming_singlecore\Workspace\I2C_SPI_GPIO\Debug/../src/bsp/driver/spi_controller/spi_master.c:212
	        for (; byte_in_cnt < byte_out_size + byte_in_size; byte_in_cnt++) {
     4c2:	fe842783          	lw	a5,-24(s0)
     4c6:	0785                	addi	a5,a5,1
     4c8:	fef42423          	sw	a5,-24(s0)
D:\Propel_Study\I2C_SPI_Programming_singlecore\Workspace\I2C_SPI_GPIO\Debug/../src/bsp/driver/spi_controller/spi_master.c:212 (discriminator 1)
     4cc:	fc744703          	lbu	a4,-57(s0)
     4d0:	fc644783          	lbu	a5,-58(s0)
     4d4:	97ba                	add	a5,a5,a4
     4d6:	873e                	mv	a4,a5
     4d8:	fe842783          	lw	a5,-24(s0)
     4dc:	fae7e8e3          	bltu	a5,a4,48c <spi_master_transfer_blocking+0xf0>
D:\Propel_Study\I2C_SPI_Programming_singlecore\Workspace\I2C_SPI_GPIO\Debug/../src/bsp/driver/spi_controller/spi_master.c:224
	            }
	        }
	    }
	    /* If the transfer complete interrupt is triggered */
	    if(int_status & (SPI_INT_TRAN_CMP))
     4e0:	fe744783          	lbu	a5,-25(s0)
     4e4:	07e2                	slli	a5,a5,0x18
     4e6:	87e1                	srai	a5,a5,0x18
     4e8:	0807d863          	bgez	a5,578 <spi_master_transfer_blocking+0x1dc>
D:\Propel_Study\I2C_SPI_Programming_singlecore\Workspace\I2C_SPI_GPIO\Debug/../src/bsp/driver/spi_controller/spi_master.c:226
	    {
	        reg_8b_read(this_spim->base_address |
     4ec:	fcc42783          	lw	a5,-52(s0)
     4f0:	439c                	lw	a5,0(a5)
     4f2:	0347e793          	ori	a5,a5,52
     4f6:	fe640713          	addi	a4,s0,-26
     4fa:	85ba                	mv	a1,a4
     4fc:	853e                	mv	a0,a5
     4fe:	2955                	jal	9b2 <reg_8b_read>
D:\Propel_Study\I2C_SPI_Programming_singlecore\Workspace\I2C_SPI_GPIO\Debug/../src/bsp/driver/spi_controller/spi_master.c:228
	    			SPI_MASTER_FIFO_STATUS, &fifo);
	    	if((fifo & SPI_MASTER_RX_FIFO_EMPTY) == 0)
     500:	fe644783          	lbu	a5,-26(s0)
     504:	8b85                	andi	a5,a5,1
     506:	efa1                	bnez	a5,55e <spi_master_transfer_blocking+0x1c2>
D:\Propel_Study\I2C_SPI_Programming_singlecore\Workspace\I2C_SPI_GPIO\Debug/../src/bsp/driver/spi_controller/spi_master.c:241
					data_buffer_in++;

				}*/


	    	    for (; byte_in_cnt < byte_out_size + byte_in_size; byte_in_cnt++) {
     508:	a089                	j	54a <spi_master_transfer_blocking+0x1ae>
D:\Propel_Study\I2C_SPI_Programming_singlecore\Workspace\I2C_SPI_GPIO\Debug/../src/bsp/driver/spi_controller/spi_master.c:243
	    	        uint32_t tmp;
	    	        reg_32b_read(this_spim->base_address |
     50a:	fcc42783          	lw	a5,-52(s0)
     50e:	439c                	lw	a5,0(a5)
     510:	fdc40713          	addi	a4,s0,-36
     514:	85ba                	mv	a1,a4
     516:	853e                	mv	a0,a5
     518:	2659                	jal	89e <reg_32b_read>
D:\Propel_Study\I2C_SPI_Programming_singlecore\Workspace\I2C_SPI_GPIO\Debug/../src/bsp/driver/spi_controller/spi_master.c:246
	    	            SPI_MASTER_RD_DATA, &tmp);

	    	        if (byte_in_cnt >= byte_out_size) {
     51a:	fc744783          	lbu	a5,-57(s0)
     51e:	fe842703          	lw	a4,-24(s0)
     522:	00f76f63          	bltu	a4,a5,540 <spi_master_transfer_blocking+0x1a4>
D:\Propel_Study\I2C_SPI_Programming_singlecore\Workspace\I2C_SPI_GPIO\Debug/../src/bsp/driver/spi_controller/spi_master.c:247
	    	            *data_buffer_in = tmp;
     526:	fdc42783          	lw	a5,-36(s0)
     52a:	0ff7f713          	zext.b	a4,a5
     52e:	fc042783          	lw	a5,-64(s0)
     532:	00e78023          	sb	a4,0(a5)
D:\Propel_Study\I2C_SPI_Programming_singlecore\Workspace\I2C_SPI_GPIO\Debug/../src/bsp/driver/spi_controller/spi_master.c:248
	    	            data_buffer_in++;
     536:	fc042783          	lw	a5,-64(s0)
     53a:	0785                	addi	a5,a5,1
     53c:	fcf42023          	sw	a5,-64(s0)
D:\Propel_Study\I2C_SPI_Programming_singlecore\Workspace\I2C_SPI_GPIO\Debug/../src/bsp/driver/spi_controller/spi_master.c:241
	    	    for (; byte_in_cnt < byte_out_size + byte_in_size; byte_in_cnt++) {
     540:	fe842783          	lw	a5,-24(s0)
     544:	0785                	addi	a5,a5,1
     546:	fef42423          	sw	a5,-24(s0)
D:\Propel_Study\I2C_SPI_Programming_singlecore\Workspace\I2C_SPI_GPIO\Debug/../src/bsp/driver/spi_controller/spi_master.c:241 (discriminator 1)
     54a:	fc744703          	lbu	a4,-57(s0)
     54e:	fc644783          	lbu	a5,-58(s0)
     552:	97ba                	add	a5,a5,a4
     554:	873e                	mv	a4,a5
     556:	fe842783          	lw	a5,-24(s0)
     55a:	fae7e8e3          	bltu	a5,a4,50a <spi_master_transfer_blocking+0x16e>
D:\Propel_Study\I2C_SPI_Programming_singlecore\Workspace\I2C_SPI_GPIO\Debug/../src/bsp/driver/spi_controller/spi_master.c:252
	    	        }
	    	    }
	    	}
	    	reg_8b_write(this_spim->base_address |
     55e:	fcc42783          	lw	a5,-52(s0)
     562:	439c                	lw	a5,0(a5)
     564:	0147e793          	ori	a5,a5,20
     568:	fe744703          	lbu	a4,-25(s0)
     56c:	85ba                	mv	a1,a4
     56e:	853e                	mv	a0,a5
     570:	2645                	jal	910 <reg_8b_write>
D:\Propel_Study\I2C_SPI_Programming_singlecore\Workspace\I2C_SPI_GPIO\Debug/../src/bsp/driver/spi_controller/spi_master.c:254
	    	                  SPI_MASTER_INT_STATUS, int_status & BITS_ALL_SET);
	    	break;
     572:	0001                	nop
D:\Propel_Study\I2C_SPI_Programming_singlecore\Workspace\I2C_SPI_GPIO\Debug/../src/bsp/driver/spi_controller/spi_master.c:279

            byte_out_cnt++;
        }

	}
	return SUCCESS;
     574:	4781                	li	a5,0
     576:	a0bd                	j	5e4 <spi_master_transfer_blocking+0x248>
D:\Propel_Study\I2C_SPI_Programming_singlecore\Workspace\I2C_SPI_GPIO\Debug/../src/bsp/driver/spi_controller/spi_master.c:257
	    else if(byte_out_cnt < byte_in_size + byte_out_size)
     578:	fc644703          	lbu	a4,-58(s0)
     57c:	fc744783          	lbu	a5,-57(s0)
     580:	97ba                	add	a5,a5,a4
     582:	873e                	mv	a4,a5
     584:	fec42783          	lw	a5,-20(s0)
     588:	eae7ffe3          	bgeu	a5,a4,446 <spi_master_transfer_blocking+0xaa>
D:\Propel_Study\I2C_SPI_Programming_singlecore\Workspace\I2C_SPI_GPIO\Debug/../src/bsp/driver/spi_controller/spi_master.c:259
	        if(byte_out_cnt < byte_out_size)
     58c:	fc744783          	lbu	a5,-57(s0)
     590:	fec42703          	lw	a4,-20(s0)
     594:	02f77263          	bgeu	a4,a5,5b8 <spi_master_transfer_blocking+0x21c>
D:\Propel_Study\I2C_SPI_Programming_singlecore\Workspace\I2C_SPI_GPIO\Debug/../src/bsp/driver/spi_controller/spi_master.c:261
	            reg_32b_write(this_spim->base_address |
     598:	fcc42783          	lw	a5,-52(s0)
     59c:	4398                	lw	a4,0(a5)
D:\Propel_Study\I2C_SPI_Programming_singlecore\Workspace\I2C_SPI_GPIO\Debug/../src/bsp/driver/spi_controller/spi_master.c:262
	                     SPI_MASTER_WR_DATA, *data_buffer_out);
     59e:	fc842783          	lw	a5,-56(s0)
     5a2:	0007c783          	lbu	a5,0(a5)
D:\Propel_Study\I2C_SPI_Programming_singlecore\Workspace\I2C_SPI_GPIO\Debug/../src/bsp/driver/spi_controller/spi_master.c:261
	            reg_32b_write(this_spim->base_address |
     5a6:	85be                	mv	a1,a5
     5a8:	853a                	mv	a0,a4
     5aa:	24e9                	jal	874 <reg_32b_write>
D:\Propel_Study\I2C_SPI_Programming_singlecore\Workspace\I2C_SPI_GPIO\Debug/../src/bsp/driver/spi_controller/spi_master.c:265
	            data_buffer_out++;
     5ac:	fc842783          	lw	a5,-56(s0)
     5b0:	0785                	addi	a5,a5,1
     5b2:	fcf42423          	sw	a5,-56(s0)
     5b6:	a00d                	j	5d8 <spi_master_transfer_blocking+0x23c>
D:\Propel_Study\I2C_SPI_Programming_singlecore\Workspace\I2C_SPI_GPIO\Debug/../src/bsp/driver/spi_controller/spi_master.c:268
	        else if(byte_out_cnt < byte_in_size + byte_out_size)
     5b8:	fc644703          	lbu	a4,-58(s0)
     5bc:	fc744783          	lbu	a5,-57(s0)
     5c0:	97ba                	add	a5,a5,a4
     5c2:	873e                	mv	a4,a5
     5c4:	fec42783          	lw	a5,-20(s0)
     5c8:	00e7f863          	bgeu	a5,a4,5d8 <spi_master_transfer_blocking+0x23c>
D:\Propel_Study\I2C_SPI_Programming_singlecore\Workspace\I2C_SPI_GPIO\Debug/../src/bsp/driver/spi_controller/spi_master.c:270
	        	reg_32b_write(this_spim->base_address |
     5cc:	fcc42783          	lw	a5,-52(s0)
     5d0:	439c                	lw	a5,0(a5)
     5d2:	55fd                	li	a1,-1
     5d4:	853e                	mv	a0,a5
     5d6:	2c79                	jal	874 <reg_32b_write>
D:\Propel_Study\I2C_SPI_Programming_singlecore\Workspace\I2C_SPI_GPIO\Debug/../src/bsp/driver/spi_controller/spi_master.c:275
            byte_out_cnt++;
     5d8:	fec42783          	lw	a5,-20(s0)
     5dc:	0785                	addi	a5,a5,1
     5de:	fef42623          	sw	a5,-20(s0)
D:\Propel_Study\I2C_SPI_Programming_singlecore\Workspace\I2C_SPI_GPIO\Debug/../src/bsp/driver/spi_controller/spi_master.c:190
	    reg_8b_read(this_spim->base_address |
     5e2:	b595                	j	446 <spi_master_transfer_blocking+0xaa>
D:\Propel_Study\I2C_SPI_Programming_singlecore\Workspace\I2C_SPI_GPIO\Debug/../src/bsp/driver/spi_controller/spi_master.c:280 (discriminator 1)
}
     5e4:	853e                	mv	a0,a5
     5e6:	50f2                	lw	ra,60(sp)
     5e8:	5462                	lw	s0,56(sp)
     5ea:	6121                	addi	sp,sp,64
     5ec:	8082                	ret

000005ee <crtInit>:
crtInit():
D:\Propel_Study\I2C_SPI_Programming_singlecore\Workspace\I2C_SPI_GPIO\Debug/../src/bsp/driver/riscv_mc/crt0.S:63
  mret
  .text


crtInit:
  la t0, trap_entry
     5ee:	01000293          	li	t0,16
D:\Propel_Study\I2C_SPI_Programming_singlecore\Workspace\I2C_SPI_GPIO\Debug/../src/bsp/driver/riscv_mc/crt0.S:64
  csrw mtvec, t0
     5f2:	30529073          	csrw	mtvec,t0
D:\Propel_Study\I2C_SPI_Programming_singlecore\Workspace\I2C_SPI_GPIO\Debug/../src/bsp/driver/riscv_mc/crt0.S:65
  csrwi mstatus, 0
     5f6:	30005073          	csrwi	mstatus,0
D:\Propel_Study\I2C_SPI_Programming_singlecore\Workspace\I2C_SPI_GPIO\Debug/../src/bsp/driver/riscv_mc/crt0.S:66
  csrwi mie, 0
     5fa:	30405073          	csrwi	mie,0
D:\Propel_Study\I2C_SPI_Programming_singlecore\Workspace\I2C_SPI_GPIO\Debug/../src/bsp/driver/riscv_mc/crt0.S:70

  .option push
  .option norelax
  la gp, __global_pointer$
     5fe:	00003197          	auipc	gp,0x3
     602:	cea18193          	addi	gp,gp,-790 # 32e8 <__global_pointer$>
D:\Propel_Study\I2C_SPI_Programming_singlecore\Workspace\I2C_SPI_GPIO\Debug/../src/bsp/driver/riscv_mc/crt0.S:72
  .option pop
  la sp, _stack_start
     606:	38818113          	addi	sp,gp,904 # 3670 <_stack_start>

0000060a <bss_init>:
bss_init():
D:\Propel_Study\I2C_SPI_Programming_singlecore\Workspace\I2C_SPI_GPIO\Debug/../src/bsp/driver/riscv_mc/crt0.S:75

bss_init:
  la a0, _bss_start
     60a:	00002517          	auipc	a0,0x2
     60e:	4de50513          	addi	a0,a0,1246 # 2ae8 <s_putc_func>
D:\Propel_Study\I2C_SPI_Programming_singlecore\Workspace\I2C_SPI_GPIO\Debug/../src/bsp/driver/riscv_mc/crt0.S:76
  la a1, _bss_end
     612:	97c18593          	addi	a1,gp,-1668 # 2c64 <_bss_end>

00000616 <bss_loop>:
bss_loop():
D:\Propel_Study\I2C_SPI_Programming_singlecore\Workspace\I2C_SPI_GPIO\Debug/../src/bsp/driver/riscv_mc/crt0.S:78
bss_loop:
  beq a0,a1,bss_done
     616:	00b50663          	beq	a0,a1,622 <bss_done>
D:\Propel_Study\I2C_SPI_Programming_singlecore\Workspace\I2C_SPI_GPIO\Debug/../src/bsp/driver/riscv_mc/crt0.S:79
  sw zero,0(a0)
     61a:	00052023          	sw	zero,0(a0)
D:\Propel_Study\I2C_SPI_Programming_singlecore\Workspace\I2C_SPI_GPIO\Debug/../src/bsp/driver/riscv_mc/crt0.S:80
  add a0,a0,4
     61e:	0511                	addi	a0,a0,4
D:\Propel_Study\I2C_SPI_Programming_singlecore\Workspace\I2C_SPI_GPIO\Debug/../src/bsp/driver/riscv_mc/crt0.S:81
  j bss_loop
     620:	bfdd                	j	616 <bss_loop>

00000622 <bss_done>:
bss_done():
D:\Propel_Study\I2C_SPI_Programming_singlecore\Workspace\I2C_SPI_GPIO\Debug/../src/bsp/driver/riscv_mc/crt0.S:105
//  li a0, 0x880     //880 enable timer + external interrupts
//  csrw mie,a0
//  li a0, 0x1808     //1808 enable interrupts
//  csrw mstatus,a0

  call main
     622:	75a010ef          	jal	ra,1d7c <main>
D:\Propel_Study\I2C_SPI_Programming_singlecore\Workspace\I2C_SPI_GPIO\Debug/../src/bsp/driver/riscv_mc/crt0.S:106
  call _exit
     626:	2029                	jal	630 <_exit>

00000628 <infinitLoop>:
infinitLoop():
D:\Propel_Study\I2C_SPI_Programming_singlecore\Workspace\I2C_SPI_GPIO\Debug/../src/bsp/driver/riscv_mc/crt0.S:108
infinitLoop:
  j infinitLoop
     628:	a001                	j	628 <infinitLoop>
D:\Propel_Study\I2C_SPI_Programming_singlecore\Workspace\I2C_SPI_GPIO\Debug/../src/bsp/driver/riscv_mc/crt0.S:111

irq_callback:
  ret
     62a:	8082                	ret
D:\Propel_Study\I2C_SPI_Programming_singlecore\Workspace\I2C_SPI_GPIO\Debug/../src/bsp/driver/riscv_mc/crt0.S:114

esr_callback:
  j esr_callback
     62c:	0ce0006f          	j	6fa <esr_callback>

00000630 <_exit>:
_exit():
D:\Propel_Study\I2C_SPI_Programming_singlecore\Workspace\I2C_SPI_GPIO\Debug/../src/bsp/driver/riscv_mc/exit.c:57
#include <stdio.h>
#include <sys/cdefs.h>

void __attribute__ ((weak, __noreturn__))
_exit (int status)
{
     630:	1101                	addi	sp,sp,-32
     632:	ce22                	sw	s0,28(sp)
     634:	1000                	addi	s0,sp,32
     636:	fea42623          	sw	a0,-20(s0)
D:\Propel_Study\I2C_SPI_Programming_singlecore\Workspace\I2C_SPI_GPIO\Debug/../src/bsp/driver/riscv_mc/exit.c:59 (discriminator 1)
	(void) status;
	while(1);
     63a:	a001                	j	63a <_exit+0xa>

0000063c <irq_callback>:
irq_callback():
D:\Propel_Study\I2C_SPI_Programming_singlecore\Workspace\I2C_SPI_GPIO\Debug/../src/bsp/driver/riscv_mc/interrupt.c:57
#include "interrupt.h"

extern struct interrupt_entry int_table[S_INT_NUM];

void irq_callback(unsigned int mcause)
{
     63c:	7179                	addi	sp,sp,-48
     63e:	d606                	sw	ra,44(sp)
     640:	d422                	sw	s0,40(sp)
     642:	1800                	addi	s0,sp,48
     644:	fca42e23          	sw	a0,-36(s0)
D:\Propel_Study\I2C_SPI_Programming_singlecore\Workspace\I2C_SPI_GPIO\Debug/../src/bsp/driver/riscv_mc/interrupt.c:59

	if ((mcause & MCAUSE_VAL_MASK) == MCAUSE_VAL_MTIP) {
     648:	fdc42783          	lw	a5,-36(s0)
     64c:	00f7f713          	andi	a4,a5,15
     650:	479d                	li	a5,7
     652:	02f71263          	bne	a4,a5,676 <irq_callback+0x3a>
D:\Propel_Study\I2C_SPI_Programming_singlecore\Workspace\I2C_SPI_GPIO\Debug/../src/bsp/driver/riscv_mc/interrupt.c:60
		if (int_table[S_INT_TIMER].isr) {
     656:	678d                	lui	a5,0x3
     658:	af878793          	addi	a5,a5,-1288 # 2af8 <int_table>
     65c:	43bc                	lw	a5,64(a5)
     65e:	cbc9                	beqz	a5,6f0 <irq_callback+0xb4>
D:\Propel_Study\I2C_SPI_Programming_singlecore\Workspace\I2C_SPI_GPIO\Debug/../src/bsp/driver/riscv_mc/interrupt.c:61
			int_table[S_INT_TIMER].isr(int_table[S_INT_TIMER].
     660:	678d                	lui	a5,0x3
     662:	af878793          	addi	a5,a5,-1288 # 2af8 <int_table>
     666:	43b8                	lw	a4,64(a5)
     668:	678d                	lui	a5,0x3
     66a:	af878793          	addi	a5,a5,-1288 # 2af8 <int_table>
     66e:	43fc                	lw	a5,68(a5)
     670:	853e                	mv	a0,a5
     672:	9702                	jalr	a4
D:\Propel_Study\I2C_SPI_Programming_singlecore\Workspace\I2C_SPI_GPIO\Debug/../src/bsp/driver/riscv_mc/interrupt.c:76
				}
				pic_int_clear(idx);
			}
		}
	}
}
     674:	a8b5                	j	6f0 <irq_callback+0xb4>
D:\Propel_Study\I2C_SPI_Programming_singlecore\Workspace\I2C_SPI_GPIO\Debug/../src/bsp/driver/riscv_mc/interrupt.c:64
	} else if ((mcause & MCAUSE_VAL_MASK) == MCASUE_VAL_MEIP) {
     676:	fdc42783          	lw	a5,-36(s0)
     67a:	00f7f713          	andi	a4,a5,15
     67e:	47ad                	li	a5,11
     680:	06f71863          	bne	a4,a5,6f0 <irq_callback+0xb4>
D:\Propel_Study\I2C_SPI_Programming_singlecore\Workspace\I2C_SPI_GPIO\Debug/../src/bsp/driver/riscv_mc/interrupt.c:66
		for (idx = S_INT_PIC0; idx < S_INT_NUM; idx++) {
     684:	fe042623          	sw	zero,-20(s0)
     688:	a8b9                	j	6e6 <irq_callback+0xaa>
D:\Propel_Study\I2C_SPI_Programming_singlecore\Workspace\I2C_SPI_GPIO\Debug/../src/bsp/driver/riscv_mc/interrupt.c:67
			if (pic_int_pending(idx)) {
     68a:	fec42783          	lw	a5,-20(s0)
     68e:	0ff7f793          	zext.b	a5,a5
     692:	853e                	mv	a0,a5
     694:	225d                	jal	83a <pic_int_pending>
     696:	87aa                	mv	a5,a0
     698:	c3b1                	beqz	a5,6dc <irq_callback+0xa0>
D:\Propel_Study\I2C_SPI_Programming_singlecore\Workspace\I2C_SPI_GPIO\Debug/../src/bsp/driver/riscv_mc/interrupt.c:68
				if (int_table[idx].isr) {
     69a:	678d                	lui	a5,0x3
     69c:	af878713          	addi	a4,a5,-1288 # 2af8 <int_table>
     6a0:	fec42783          	lw	a5,-20(s0)
     6a4:	078e                	slli	a5,a5,0x3
     6a6:	97ba                	add	a5,a5,a4
     6a8:	439c                	lw	a5,0(a5)
     6aa:	c39d                	beqz	a5,6d0 <irq_callback+0x94>
D:\Propel_Study\I2C_SPI_Programming_singlecore\Workspace\I2C_SPI_GPIO\Debug/../src/bsp/driver/riscv_mc/interrupt.c:69
					int_table[idx].isr(int_table[idx].
     6ac:	678d                	lui	a5,0x3
     6ae:	af878713          	addi	a4,a5,-1288 # 2af8 <int_table>
     6b2:	fec42783          	lw	a5,-20(s0)
     6b6:	078e                	slli	a5,a5,0x3
     6b8:	97ba                	add	a5,a5,a4
     6ba:	4394                	lw	a3,0(a5)
     6bc:	678d                	lui	a5,0x3
     6be:	af878713          	addi	a4,a5,-1288 # 2af8 <int_table>
     6c2:	fec42783          	lw	a5,-20(s0)
     6c6:	078e                	slli	a5,a5,0x3
     6c8:	97ba                	add	a5,a5,a4
     6ca:	43dc                	lw	a5,4(a5)
     6cc:	853e                	mv	a0,a5
     6ce:	9682                	jalr	a3
D:\Propel_Study\I2C_SPI_Programming_singlecore\Workspace\I2C_SPI_GPIO\Debug/../src/bsp/driver/riscv_mc/interrupt.c:72
				pic_int_clear(idx);
     6d0:	fec42783          	lw	a5,-20(s0)
     6d4:	0ff7f793          	zext.b	a5,a5
     6d8:	853e                	mv	a0,a5
     6da:	2a25                	jal	812 <pic_int_clear>
D:\Propel_Study\I2C_SPI_Programming_singlecore\Workspace\I2C_SPI_GPIO\Debug/../src/bsp/driver/riscv_mc/interrupt.c:66 (discriminator 2)
		for (idx = S_INT_PIC0; idx < S_INT_NUM; idx++) {
     6dc:	fec42783          	lw	a5,-20(s0)
     6e0:	0785                	addi	a5,a5,1
     6e2:	fef42623          	sw	a5,-20(s0)
D:\Propel_Study\I2C_SPI_Programming_singlecore\Workspace\I2C_SPI_GPIO\Debug/../src/bsp/driver/riscv_mc/interrupt.c:66 (discriminator 1)
     6e6:	fec42703          	lw	a4,-20(s0)
     6ea:	47a1                	li	a5,8
     6ec:	f8e7dfe3          	bge	a5,a4,68a <irq_callback+0x4e>
D:\Propel_Study\I2C_SPI_Programming_singlecore\Workspace\I2C_SPI_GPIO\Debug/../src/bsp/driver/riscv_mc/interrupt.c:76
}
     6f0:	0001                	nop
     6f2:	50b2                	lw	ra,44(sp)
     6f4:	5422                	lw	s0,40(sp)
     6f6:	6145                	addi	sp,sp,48
     6f8:	8082                	ret

000006fa <esr_callback>:
esr_callback():
D:\Propel_Study\I2C_SPI_Programming_singlecore\Workspace\I2C_SPI_GPIO\Debug/../src/bsp/driver/riscv_mc/interrupt.c:80

unsigned int esr_callback(unsigned int mcause, unsigned int mepc,
			  unsigned int sp)
{
     6fa:	1101                	addi	sp,sp,-32
     6fc:	ce06                	sw	ra,28(sp)
     6fe:	cc22                	sw	s0,24(sp)
     700:	1000                	addi	s0,sp,32
     702:	fea42623          	sw	a0,-20(s0)
     706:	feb42423          	sw	a1,-24(s0)
     70a:	fec42223          	sw	a2,-28(s0)
D:\Propel_Study\I2C_SPI_Programming_singlecore\Workspace\I2C_SPI_GPIO\Debug/../src/bsp/driver/riscv_mc/interrupt.c:82

	printf("Exception caught: mcause=%d ,", mcause);
     70e:	fec42583          	lw	a1,-20(s0)
     712:	6789                	lui	a5,0x2
     714:	63478513          	addi	a0,a5,1588 # 2634 <_etext>
     718:	03d010ef          	jal	ra,1f54 <printf>
D:\Propel_Study\I2C_SPI_Programming_singlecore\Workspace\I2C_SPI_GPIO\Debug/../src/bsp/driver/riscv_mc/interrupt.c:83
	printf("mepc=%x, sp=%x \r\n", mepc, sp);
     71c:	fe442603          	lw	a2,-28(s0)
     720:	fe842583          	lw	a1,-24(s0)
     724:	6789                	lui	a5,0x2
     726:	65478513          	addi	a0,a5,1620 # 2654 <_etext+0x20>
     72a:	02b010ef          	jal	ra,1f54 <printf>
D:\Propel_Study\I2C_SPI_Programming_singlecore\Workspace\I2C_SPI_GPIO\Debug/../src/bsp/driver/riscv_mc/interrupt.c:107
		break;
	}

	printf("\r\n");
#endif
	return mepc + 4;
     72e:	fe842783          	lw	a5,-24(s0)
     732:	0791                	addi	a5,a5,4
D:\Propel_Study\I2C_SPI_Programming_singlecore\Workspace\I2C_SPI_GPIO\Debug/../src/bsp/driver/riscv_mc/interrupt.c:108
}
     734:	853e                	mv	a0,a5
     736:	40f2                	lw	ra,28(sp)
     738:	4462                	lw	s0,24(sp)
     73a:	6105                	addi	sp,sp,32
     73c:	8082                	ret

0000073e <iob_init>:
iob_init():
D:\Propel_Study\I2C_SPI_Programming_singlecore\Workspace\I2C_SPI_GPIO\Debug/../src/bsp/driver/riscv_mc/iob.c:63
static lscc_getc_func s_getc_func;
static lscc_flush_func s_flush_func;


void iob_init(lscc_putc_func putc_func, lscc_getc_func getc_func, lscc_flush_func flush_func)
{
     73e:	1101                	addi	sp,sp,-32
     740:	ce22                	sw	s0,28(sp)
     742:	1000                	addi	s0,sp,32
     744:	fea42623          	sw	a0,-20(s0)
     748:	feb42423          	sw	a1,-24(s0)
     74c:	fec42223          	sw	a2,-28(s0)
D:\Propel_Study\I2C_SPI_Programming_singlecore\Workspace\I2C_SPI_GPIO\Debug/../src/bsp/driver/riscv_mc/iob.c:64
	s_putc_func = putc_func;
     750:	678d                	lui	a5,0x3
     752:	fec42703          	lw	a4,-20(s0)
     756:	aee7a423          	sw	a4,-1304(a5) # 2ae8 <s_putc_func>
D:\Propel_Study\I2C_SPI_Programming_singlecore\Workspace\I2C_SPI_GPIO\Debug/../src/bsp/driver/riscv_mc/iob.c:65
	s_getc_func = getc_func;
     75a:	678d                	lui	a5,0x3
     75c:	fe842703          	lw	a4,-24(s0)
     760:	aee7a623          	sw	a4,-1300(a5) # 2aec <s_getc_func>
D:\Propel_Study\I2C_SPI_Programming_singlecore\Workspace\I2C_SPI_GPIO\Debug/../src/bsp/driver/riscv_mc/iob.c:66
	s_flush_func = flush_func;
     764:	678d                	lui	a5,0x3
     766:	fe442703          	lw	a4,-28(s0)
     76a:	aee7a823          	sw	a4,-1296(a5) # 2af0 <s_flush_func>
D:\Propel_Study\I2C_SPI_Programming_singlecore\Workspace\I2C_SPI_GPIO\Debug/../src/bsp/driver/riscv_mc/iob.c:67
}
     76e:	0001                	nop
     770:	4472                	lw	s0,28(sp)
     772:	6105                	addi	sp,sp,32
     774:	8082                	ret

00000776 <iob_putc>:
iob_putc():
D:\Propel_Study\I2C_SPI_Programming_singlecore\Workspace\I2C_SPI_GPIO\Debug/../src/bsp/driver/riscv_mc/iob.c:71


static int iob_putc(char c, FILE *file)
{
     776:	1101                	addi	sp,sp,-32
     778:	ce06                	sw	ra,28(sp)
     77a:	cc22                	sw	s0,24(sp)
     77c:	1000                	addi	s0,sp,32
     77e:	87aa                	mv	a5,a0
     780:	feb42423          	sw	a1,-24(s0)
     784:	fef407a3          	sb	a5,-17(s0)
D:\Propel_Study\I2C_SPI_Programming_singlecore\Workspace\I2C_SPI_GPIO\Debug/../src/bsp/driver/riscv_mc/iob.c:72
	return s_putc_func ? (*s_putc_func)(c, file) : EOF;
     788:	678d                	lui	a5,0x3
     78a:	ae87a783          	lw	a5,-1304(a5) # 2ae8 <s_putc_func>
     78e:	cf81                	beqz	a5,7a6 <iob_putc+0x30>
D:\Propel_Study\I2C_SPI_Programming_singlecore\Workspace\I2C_SPI_GPIO\Debug/../src/bsp/driver/riscv_mc/iob.c:72 (discriminator 1)
     790:	678d                	lui	a5,0x3
     792:	ae87a703          	lw	a4,-1304(a5) # 2ae8 <s_putc_func>
     796:	fef40783          	lb	a5,-17(s0)
     79a:	fe842583          	lw	a1,-24(s0)
     79e:	853e                	mv	a0,a5
     7a0:	9702                	jalr	a4
     7a2:	87aa                	mv	a5,a0
     7a4:	a011                	j	7a8 <iob_putc+0x32>
D:\Propel_Study\I2C_SPI_Programming_singlecore\Workspace\I2C_SPI_GPIO\Debug/../src/bsp/driver/riscv_mc/iob.c:72 (discriminator 2)
     7a6:	57fd                	li	a5,-1
D:\Propel_Study\I2C_SPI_Programming_singlecore\Workspace\I2C_SPI_GPIO\Debug/../src/bsp/driver/riscv_mc/iob.c:73 (discriminator 5)
}
     7a8:	853e                	mv	a0,a5
     7aa:	40f2                	lw	ra,28(sp)
     7ac:	4462                	lw	s0,24(sp)
     7ae:	6105                	addi	sp,sp,32
     7b0:	8082                	ret

000007b2 <iob_getc>:
iob_getc():
D:\Propel_Study\I2C_SPI_Programming_singlecore\Workspace\I2C_SPI_GPIO\Debug/../src/bsp/driver/riscv_mc/iob.c:77


static int iob_getc(FILE *file)
{
     7b2:	1101                	addi	sp,sp,-32
     7b4:	ce06                	sw	ra,28(sp)
     7b6:	cc22                	sw	s0,24(sp)
     7b8:	1000                	addi	s0,sp,32
     7ba:	fea42623          	sw	a0,-20(s0)
D:\Propel_Study\I2C_SPI_Programming_singlecore\Workspace\I2C_SPI_GPIO\Debug/../src/bsp/driver/riscv_mc/iob.c:78
	return s_getc_func ? (*s_getc_func)(file) : EOF;
     7be:	678d                	lui	a5,0x3
     7c0:	aec7a783          	lw	a5,-1300(a5) # 2aec <s_getc_func>
     7c4:	cb89                	beqz	a5,7d6 <iob_getc+0x24>
D:\Propel_Study\I2C_SPI_Programming_singlecore\Workspace\I2C_SPI_GPIO\Debug/../src/bsp/driver/riscv_mc/iob.c:78 (discriminator 1)
     7c6:	678d                	lui	a5,0x3
     7c8:	aec7a783          	lw	a5,-1300(a5) # 2aec <s_getc_func>
     7cc:	fec42503          	lw	a0,-20(s0)
     7d0:	9782                	jalr	a5
     7d2:	87aa                	mv	a5,a0
     7d4:	a011                	j	7d8 <iob_getc+0x26>
D:\Propel_Study\I2C_SPI_Programming_singlecore\Workspace\I2C_SPI_GPIO\Debug/../src/bsp/driver/riscv_mc/iob.c:78 (discriminator 2)
     7d6:	57fd                	li	a5,-1
D:\Propel_Study\I2C_SPI_Programming_singlecore\Workspace\I2C_SPI_GPIO\Debug/../src/bsp/driver/riscv_mc/iob.c:79 (discriminator 5)
}
     7d8:	853e                	mv	a0,a5
     7da:	40f2                	lw	ra,28(sp)
     7dc:	4462                	lw	s0,24(sp)
     7de:	6105                	addi	sp,sp,32
     7e0:	8082                	ret

000007e2 <iob_flush>:
iob_flush():
D:\Propel_Study\I2C_SPI_Programming_singlecore\Workspace\I2C_SPI_GPIO\Debug/../src/bsp/driver/riscv_mc/iob.c:83


static int iob_flush(FILE *file)
{
     7e2:	1101                	addi	sp,sp,-32
     7e4:	ce06                	sw	ra,28(sp)
     7e6:	cc22                	sw	s0,24(sp)
     7e8:	1000                	addi	s0,sp,32
     7ea:	fea42623          	sw	a0,-20(s0)
D:\Propel_Study\I2C_SPI_Programming_singlecore\Workspace\I2C_SPI_GPIO\Debug/../src/bsp/driver/riscv_mc/iob.c:84
	return s_flush_func ? (*s_flush_func)(file) : 0;
     7ee:	678d                	lui	a5,0x3
     7f0:	af07a783          	lw	a5,-1296(a5) # 2af0 <s_flush_func>
     7f4:	cb89                	beqz	a5,806 <iob_flush+0x24>
D:\Propel_Study\I2C_SPI_Programming_singlecore\Workspace\I2C_SPI_GPIO\Debug/../src/bsp/driver/riscv_mc/iob.c:84 (discriminator 1)
     7f6:	678d                	lui	a5,0x3
     7f8:	af07a783          	lw	a5,-1296(a5) # 2af0 <s_flush_func>
     7fc:	fec42503          	lw	a0,-20(s0)
     800:	9782                	jalr	a5
     802:	87aa                	mv	a5,a0
     804:	a011                	j	808 <iob_flush+0x26>
D:\Propel_Study\I2C_SPI_Programming_singlecore\Workspace\I2C_SPI_GPIO\Debug/../src/bsp/driver/riscv_mc/iob.c:84 (discriminator 2)
     806:	4781                	li	a5,0
D:\Propel_Study\I2C_SPI_Programming_singlecore\Workspace\I2C_SPI_GPIO\Debug/../src/bsp/driver/riscv_mc/iob.c:85 (discriminator 5)
}
     808:	853e                	mv	a0,a5
     80a:	40f2                	lw	ra,28(sp)
     80c:	4462                	lw	s0,24(sp)
     80e:	6105                	addi	sp,sp,32
     810:	8082                	ret

00000812 <pic_int_clear>:
pic_int_clear():
D:\Propel_Study\I2C_SPI_Programming_singlecore\Workspace\I2C_SPI_GPIO\Debug/../src/bsp/driver/riscv_mc/pic.c:94
	pic_dev->pic_en &= (~(1 << src));
	return 0;
}

unsigned char pic_int_clear(unsigned char src)
{
     812:	1101                	addi	sp,sp,-32
     814:	ce22                	sw	s0,28(sp)
     816:	1000                	addi	s0,sp,32
     818:	87aa                	mv	a5,a0
     81a:	fef407a3          	sb	a5,-17(s0)
D:\Propel_Study\I2C_SPI_Programming_singlecore\Workspace\I2C_SPI_GPIO\Debug/../src/bsp/driver/riscv_mc/pic.c:95
	pic_dev->pic_status = 1 << (src);
     81e:	fef44783          	lbu	a5,-17(s0)
     822:	4705                	li	a4,1
     824:	00f71733          	sll	a4,a4,a5
     828:	678d                	lui	a5,0x3
     82a:	af47a783          	lw	a5,-1292(a5) # 2af4 <pic_dev>
     82e:	c398                	sw	a4,0(a5)
D:\Propel_Study\I2C_SPI_Programming_singlecore\Workspace\I2C_SPI_GPIO\Debug/../src/bsp/driver/riscv_mc/pic.c:96
	return 0;
     830:	4781                	li	a5,0
D:\Propel_Study\I2C_SPI_Programming_singlecore\Workspace\I2C_SPI_GPIO\Debug/../src/bsp/driver/riscv_mc/pic.c:97
}
     832:	853e                	mv	a0,a5
     834:	4472                	lw	s0,28(sp)
     836:	6105                	addi	sp,sp,32
     838:	8082                	ret

0000083a <pic_int_pending>:
pic_int_pending():
D:\Propel_Study\I2C_SPI_Programming_singlecore\Workspace\I2C_SPI_GPIO\Debug/../src/bsp/driver/riscv_mc/pic.c:100

unsigned char pic_int_pending(unsigned char src)
{
     83a:	7179                	addi	sp,sp,-48
     83c:	d622                	sw	s0,44(sp)
     83e:	1800                	addi	s0,sp,48
     840:	87aa                	mv	a5,a0
     842:	fcf40fa3          	sb	a5,-33(s0)
D:\Propel_Study\I2C_SPI_Programming_singlecore\Workspace\I2C_SPI_GPIO\Debug/../src/bsp/driver/riscv_mc/pic.c:101
	unsigned int ifr = pic_dev->pic_status;
     846:	678d                	lui	a5,0x3
     848:	af47a783          	lw	a5,-1292(a5) # 2af4 <pic_dev>
     84c:	439c                	lw	a5,0(a5)
     84e:	fef42623          	sw	a5,-20(s0)
D:\Propel_Study\I2C_SPI_Programming_singlecore\Workspace\I2C_SPI_GPIO\Debug/../src/bsp/driver/riscv_mc/pic.c:103

	if (ifr & (1 << src)) {
     852:	fdf44783          	lbu	a5,-33(s0)
     856:	4705                	li	a4,1
     858:	00f717b3          	sll	a5,a4,a5
     85c:	873e                	mv	a4,a5
     85e:	fec42783          	lw	a5,-20(s0)
     862:	8ff9                	and	a5,a5,a4
     864:	c399                	beqz	a5,86a <pic_int_pending+0x30>
D:\Propel_Study\I2C_SPI_Programming_singlecore\Workspace\I2C_SPI_GPIO\Debug/../src/bsp/driver/riscv_mc/pic.c:104
		return 1;
     866:	4785                	li	a5,1
     868:	a011                	j	86c <pic_int_pending+0x32>
D:\Propel_Study\I2C_SPI_Programming_singlecore\Workspace\I2C_SPI_GPIO\Debug/../src/bsp/driver/riscv_mc/pic.c:107
	}

	return 0;
     86a:	4781                	li	a5,0
D:\Propel_Study\I2C_SPI_Programming_singlecore\Workspace\I2C_SPI_GPIO\Debug/../src/bsp/driver/riscv_mc/pic.c:108
}
     86c:	853e                	mv	a0,a5
     86e:	5432                	lw	s0,44(sp)
     870:	6145                	addi	sp,sp,48
     872:	8082                	ret

00000874 <reg_32b_write>:
reg_32b_write():
D:\Propel_Study\I2C_SPI_Programming_singlecore\Workspace\I2C_SPI_GPIO\Debug/../src/bsp/driver/riscv_mc/reg_access.c:55
     ================================================================== */

#include "reg_access.h"

unsigned char reg_32b_write(unsigned int reg_addr, unsigned int value)
{
     874:	7179                	addi	sp,sp,-48
     876:	d622                	sw	s0,44(sp)
     878:	1800                	addi	s0,sp,48
     87a:	fca42e23          	sw	a0,-36(s0)
     87e:	fcb42c23          	sw	a1,-40(s0)
D:\Propel_Study\I2C_SPI_Programming_singlecore\Workspace\I2C_SPI_GPIO\Debug/../src/bsp/driver/riscv_mc/reg_access.c:56
	unsigned int volatile *reg_value = (void *) reg_addr;
     882:	fdc42783          	lw	a5,-36(s0)
     886:	fef42623          	sw	a5,-20(s0)
D:\Propel_Study\I2C_SPI_Programming_singlecore\Workspace\I2C_SPI_GPIO\Debug/../src/bsp/driver/riscv_mc/reg_access.c:58

	*reg_value = value;
     88a:	fec42783          	lw	a5,-20(s0)
     88e:	fd842703          	lw	a4,-40(s0)
     892:	c398                	sw	a4,0(a5)
D:\Propel_Study\I2C_SPI_Programming_singlecore\Workspace\I2C_SPI_GPIO\Debug/../src/bsp/driver/riscv_mc/reg_access.c:59
	return 0;
     894:	4781                	li	a5,0
D:\Propel_Study\I2C_SPI_Programming_singlecore\Workspace\I2C_SPI_GPIO\Debug/../src/bsp/driver/riscv_mc/reg_access.c:60
}
     896:	853e                	mv	a0,a5
     898:	5432                	lw	s0,44(sp)
     89a:	6145                	addi	sp,sp,48
     89c:	8082                	ret

0000089e <reg_32b_read>:
reg_32b_read():
D:\Propel_Study\I2C_SPI_Programming_singlecore\Workspace\I2C_SPI_GPIO\Debug/../src/bsp/driver/riscv_mc/reg_access.c:64

unsigned char reg_32b_read(unsigned int reg_addr,
			   unsigned int *reg_32b_value)
{
     89e:	7179                	addi	sp,sp,-48
     8a0:	d622                	sw	s0,44(sp)
     8a2:	1800                	addi	s0,sp,48
     8a4:	fca42e23          	sw	a0,-36(s0)
     8a8:	fcb42c23          	sw	a1,-40(s0)
D:\Propel_Study\I2C_SPI_Programming_singlecore\Workspace\I2C_SPI_GPIO\Debug/../src/bsp/driver/riscv_mc/reg_access.c:65
	unsigned int volatile *reg_value = (void *) reg_addr;
     8ac:	fdc42783          	lw	a5,-36(s0)
     8b0:	fef42623          	sw	a5,-20(s0)
D:\Propel_Study\I2C_SPI_Programming_singlecore\Workspace\I2C_SPI_GPIO\Debug/../src/bsp/driver/riscv_mc/reg_access.c:66
	*reg_32b_value = *reg_value;
     8b4:	fec42783          	lw	a5,-20(s0)
     8b8:	4398                	lw	a4,0(a5)
     8ba:	fd842783          	lw	a5,-40(s0)
     8be:	c398                	sw	a4,0(a5)
D:\Propel_Study\I2C_SPI_Programming_singlecore\Workspace\I2C_SPI_GPIO\Debug/../src/bsp/driver/riscv_mc/reg_access.c:68

	return 0;
     8c0:	4781                	li	a5,0
D:\Propel_Study\I2C_SPI_Programming_singlecore\Workspace\I2C_SPI_GPIO\Debug/../src/bsp/driver/riscv_mc/reg_access.c:69
}
     8c2:	853e                	mv	a0,a5
     8c4:	5432                	lw	s0,44(sp)
     8c6:	6145                	addi	sp,sp,48
     8c8:	8082                	ret

000008ca <reg_32b_modify>:
reg_32b_modify():
D:\Propel_Study\I2C_SPI_Programming_singlecore\Workspace\I2C_SPI_GPIO\Debug/../src/bsp/driver/riscv_mc/reg_access.c:73

unsigned char reg_32b_modify(unsigned int reg_addr, unsigned int bits_mask,
			     unsigned int value)
{
     8ca:	7179                	addi	sp,sp,-48
     8cc:	d622                	sw	s0,44(sp)
     8ce:	1800                	addi	s0,sp,48
     8d0:	fca42e23          	sw	a0,-36(s0)
     8d4:	fcb42c23          	sw	a1,-40(s0)
     8d8:	fcc42a23          	sw	a2,-44(s0)
D:\Propel_Study\I2C_SPI_Programming_singlecore\Workspace\I2C_SPI_GPIO\Debug/../src/bsp/driver/riscv_mc/reg_access.c:74
	unsigned int volatile *reg_value = (void *) reg_addr;
     8dc:	fdc42783          	lw	a5,-36(s0)
     8e0:	fef42623          	sw	a5,-20(s0)
D:\Propel_Study\I2C_SPI_Programming_singlecore\Workspace\I2C_SPI_GPIO\Debug/../src/bsp/driver/riscv_mc/reg_access.c:77

	//*reg_value = ((*reg_value) & ~bits_mask) | value;
	*reg_value = ((*reg_value) & (~bits_mask)) | (value & bits_mask);
     8e4:	fec42783          	lw	a5,-20(s0)
     8e8:	4398                	lw	a4,0(a5)
     8ea:	fd842783          	lw	a5,-40(s0)
     8ee:	fff7c793          	not	a5,a5
     8f2:	8f7d                	and	a4,a4,a5
     8f4:	fd442683          	lw	a3,-44(s0)
     8f8:	fd842783          	lw	a5,-40(s0)
     8fc:	8ff5                	and	a5,a5,a3
     8fe:	8f5d                	or	a4,a4,a5
     900:	fec42783          	lw	a5,-20(s0)
     904:	c398                	sw	a4,0(a5)
D:\Propel_Study\I2C_SPI_Programming_singlecore\Workspace\I2C_SPI_GPIO\Debug/../src/bsp/driver/riscv_mc/reg_access.c:78
	return 0;
     906:	4781                	li	a5,0
D:\Propel_Study\I2C_SPI_Programming_singlecore\Workspace\I2C_SPI_GPIO\Debug/../src/bsp/driver/riscv_mc/reg_access.c:79
}
     908:	853e                	mv	a0,a5
     90a:	5432                	lw	s0,44(sp)
     90c:	6145                	addi	sp,sp,48
     90e:	8082                	ret

00000910 <reg_8b_write>:
reg_8b_write():
D:\Propel_Study\I2C_SPI_Programming_singlecore\Workspace\I2C_SPI_GPIO\Debug/../src/bsp/driver/riscv_mc/reg_access.c:98
	*reg_16b_value = *reg_value;
	return 0;
}

unsigned char reg_8b_write(unsigned int reg_addr, unsigned char value)
{
     910:	7179                	addi	sp,sp,-48
     912:	d622                	sw	s0,44(sp)
     914:	1800                	addi	s0,sp,48
     916:	fca42e23          	sw	a0,-36(s0)
     91a:	87ae                	mv	a5,a1
     91c:	fcf40da3          	sb	a5,-37(s0)
D:\Propel_Study\I2C_SPI_Programming_singlecore\Workspace\I2C_SPI_GPIO\Debug/../src/bsp/driver/riscv_mc/reg_access.c:99
	unsigned char volatile *reg_value = (void *) reg_addr;
     920:	fdc42783          	lw	a5,-36(s0)
     924:	fef42623          	sw	a5,-20(s0)
D:\Propel_Study\I2C_SPI_Programming_singlecore\Workspace\I2C_SPI_GPIO\Debug/../src/bsp/driver/riscv_mc/reg_access.c:101

	*reg_value = value;
     928:	fec42783          	lw	a5,-20(s0)
     92c:	fdb44703          	lbu	a4,-37(s0)
     930:	00e78023          	sb	a4,0(a5)
D:\Propel_Study\I2C_SPI_Programming_singlecore\Workspace\I2C_SPI_GPIO\Debug/../src/bsp/driver/riscv_mc/reg_access.c:102
	return 0;
     934:	4781                	li	a5,0
D:\Propel_Study\I2C_SPI_Programming_singlecore\Workspace\I2C_SPI_GPIO\Debug/../src/bsp/driver/riscv_mc/reg_access.c:103
}
     936:	853e                	mv	a0,a5
     938:	5432                	lw	s0,44(sp)
     93a:	6145                	addi	sp,sp,48
     93c:	8082                	ret

0000093e <reg_8b_modify>:
reg_8b_modify():
D:\Propel_Study\I2C_SPI_Programming_singlecore\Workspace\I2C_SPI_GPIO\Debug/../src/bsp/driver/riscv_mc/reg_access.c:107

unsigned char reg_8b_modify(unsigned int reg_addr, unsigned char bits_mask,
			    unsigned char value)
{
     93e:	7179                	addi	sp,sp,-48
     940:	d622                	sw	s0,44(sp)
     942:	1800                	addi	s0,sp,48
     944:	fca42e23          	sw	a0,-36(s0)
     948:	87ae                	mv	a5,a1
     94a:	8732                	mv	a4,a2
     94c:	fcf40da3          	sb	a5,-37(s0)
     950:	87ba                	mv	a5,a4
     952:	fcf40d23          	sb	a5,-38(s0)
D:\Propel_Study\I2C_SPI_Programming_singlecore\Workspace\I2C_SPI_GPIO\Debug/../src/bsp/driver/riscv_mc/reg_access.c:108
	unsigned char volatile *reg_value = (void *) reg_addr;
     956:	fdc42783          	lw	a5,-36(s0)
     95a:	fef42623          	sw	a5,-20(s0)
D:\Propel_Study\I2C_SPI_Programming_singlecore\Workspace\I2C_SPI_GPIO\Debug/../src/bsp/driver/riscv_mc/reg_access.c:110

	*reg_value = ((*reg_value) & (~bits_mask)) | (value & bits_mask);
     95e:	fec42783          	lw	a5,-20(s0)
     962:	0007c783          	lbu	a5,0(a5)
     966:	0ff7f793          	zext.b	a5,a5
     96a:	01879713          	slli	a4,a5,0x18
     96e:	8761                	srai	a4,a4,0x18
     970:	fdb40783          	lb	a5,-37(s0)
     974:	fff7c793          	not	a5,a5
     978:	07e2                	slli	a5,a5,0x18
     97a:	87e1                	srai	a5,a5,0x18
     97c:	8ff9                	and	a5,a5,a4
     97e:	01879713          	slli	a4,a5,0x18
     982:	8761                	srai	a4,a4,0x18
     984:	fda44683          	lbu	a3,-38(s0)
     988:	fdb44783          	lbu	a5,-37(s0)
     98c:	8ff5                	and	a5,a5,a3
     98e:	0ff7f793          	zext.b	a5,a5
     992:	07e2                	slli	a5,a5,0x18
     994:	87e1                	srai	a5,a5,0x18
     996:	8fd9                	or	a5,a5,a4
     998:	07e2                	slli	a5,a5,0x18
     99a:	87e1                	srai	a5,a5,0x18
     99c:	0ff7f713          	zext.b	a4,a5
     9a0:	fec42783          	lw	a5,-20(s0)
     9a4:	00e78023          	sb	a4,0(a5)
D:\Propel_Study\I2C_SPI_Programming_singlecore\Workspace\I2C_SPI_GPIO\Debug/../src/bsp/driver/riscv_mc/reg_access.c:111
	return 0;
     9a8:	4781                	li	a5,0
D:\Propel_Study\I2C_SPI_Programming_singlecore\Workspace\I2C_SPI_GPIO\Debug/../src/bsp/driver/riscv_mc/reg_access.c:112
}
     9aa:	853e                	mv	a0,a5
     9ac:	5432                	lw	s0,44(sp)
     9ae:	6145                	addi	sp,sp,48
     9b0:	8082                	ret

000009b2 <reg_8b_read>:
reg_8b_read():
D:\Propel_Study\I2C_SPI_Programming_singlecore\Workspace\I2C_SPI_GPIO\Debug/../src/bsp/driver/riscv_mc/reg_access.c:116

unsigned char reg_8b_read(unsigned int reg_addr,
			  unsigned char *reg_8b_value)
{
     9b2:	7179                	addi	sp,sp,-48
     9b4:	d622                	sw	s0,44(sp)
     9b6:	1800                	addi	s0,sp,48
     9b8:	fca42e23          	sw	a0,-36(s0)
     9bc:	fcb42c23          	sw	a1,-40(s0)
D:\Propel_Study\I2C_SPI_Programming_singlecore\Workspace\I2C_SPI_GPIO\Debug/../src/bsp/driver/riscv_mc/reg_access.c:117
	unsigned char volatile *reg_value = (void *) reg_addr;
     9c0:	fdc42783          	lw	a5,-36(s0)
     9c4:	fef42623          	sw	a5,-20(s0)
D:\Propel_Study\I2C_SPI_Programming_singlecore\Workspace\I2C_SPI_GPIO\Debug/../src/bsp/driver/riscv_mc/reg_access.c:118
	*reg_8b_value = *reg_value;
     9c8:	fec42783          	lw	a5,-20(s0)
     9cc:	0007c783          	lbu	a5,0(a5)
     9d0:	0ff7f713          	zext.b	a4,a5
     9d4:	fd842783          	lw	a5,-40(s0)
     9d8:	00e78023          	sb	a4,0(a5)
D:\Propel_Study\I2C_SPI_Programming_singlecore\Workspace\I2C_SPI_GPIO\Debug/../src/bsp/driver/riscv_mc/reg_access.c:119
	return 0;
     9dc:	4781                	li	a5,0
D:\Propel_Study\I2C_SPI_Programming_singlecore\Workspace\I2C_SPI_GPIO\Debug/../src/bsp/driver/riscv_mc/reg_access.c:120
}
     9de:	853e                	mv	a0,a5
     9e0:	5432                	lw	s0,44(sp)
     9e2:	6145                	addi	sp,sp,48
     9e4:	8082                	ret

000009e6 <i2c_master_init>:
i2c_master_init():
D:\Propel_Study\I2C_SPI_Programming_singlecore\Workspace\I2C_SPI_GPIO\Debug/../src/bsp/driver/i2c_controller/i2c_master.c:40
#include "reg_access.h"
#include <stddef.h>

uint8_t i2c_master_init(struct i2cm_instance *this_i2cm,
			uint32_t base_addr)
{
     9e6:	1101                	addi	sp,sp,-32
     9e8:	ce22                	sw	s0,28(sp)
     9ea:	1000                	addi	s0,sp,32
     9ec:	fea42623          	sw	a0,-20(s0)
     9f0:	feb42423          	sw	a1,-24(s0)
D:\Propel_Study\I2C_SPI_Programming_singlecore\Workspace\I2C_SPI_GPIO\Debug/../src/bsp/driver/i2c_controller/i2c_master.c:41
	if (NULL == this_i2cm) {
     9f4:	fec42783          	lw	a5,-20(s0)
     9f8:	e399                	bnez	a5,9fe <i2c_master_init+0x18>
D:\Propel_Study\I2C_SPI_Programming_singlecore\Workspace\I2C_SPI_GPIO\Debug/../src/bsp/driver/i2c_controller/i2c_master.c:42
        return 1;
     9fa:	4785                	li	a5,1
     9fc:	a81d                	j	a32 <_STACK_SIZE+0x32>
D:\Propel_Study\I2C_SPI_Programming_singlecore\Workspace\I2C_SPI_GPIO\Debug/../src/bsp/driver/i2c_controller/i2c_master.c:45
	}

    this_i2cm->base_address = base_addr;
     9fe:	fec42783          	lw	a5,-20(s0)
     a02:	fe842703          	lw	a4,-24(s0)
     a06:	c3d8                	sw	a4,4(a5)
D:\Propel_Study\I2C_SPI_Programming_singlecore\Workspace\I2C_SPI_GPIO\Debug/../src/bsp/driver/i2c_controller/i2c_master.c:46
    this_i2cm->addr_mode = 0;
     a08:	fec42783          	lw	a5,-20(s0)
     a0c:	000784a3          	sb	zero,9(a5)
D:\Propel_Study\I2C_SPI_Programming_singlecore\Workspace\I2C_SPI_GPIO\Debug/../src/bsp/driver/i2c_controller/i2c_master.c:47
    this_i2cm->state = I2CM_STATE_IDLE;
     a10:	fec42783          	lw	a5,-20(s0)
     a14:	00078423          	sb	zero,8(a5)
D:\Propel_Study\I2C_SPI_Programming_singlecore\Workspace\I2C_SPI_GPIO\Debug/../src/bsp/driver/i2c_controller/i2c_master.c:48
    this_i2cm->interrupts_en = 0;
     a18:	fec42783          	lw	a5,-20(s0)
     a1c:	00079523          	sh	zero,10(a5)
D:\Propel_Study\I2C_SPI_Programming_singlecore\Workspace\I2C_SPI_GPIO\Debug/../src/bsp/driver/i2c_controller/i2c_master.c:49
    this_i2cm->rx_buff = NULL;
     a20:	fec42783          	lw	a5,-20(s0)
     a24:	0007a623          	sw	zero,12(a5)
D:\Propel_Study\I2C_SPI_Programming_singlecore\Workspace\I2C_SPI_GPIO\Debug/../src/bsp/driver/i2c_controller/i2c_master.c:50
    this_i2cm->rcv_length = 0;
     a28:	fec42783          	lw	a5,-20(s0)
     a2c:	00078823          	sb	zero,16(a5)
D:\Propel_Study\I2C_SPI_Programming_singlecore\Workspace\I2C_SPI_GPIO\Debug/../src/bsp/driver/i2c_controller/i2c_master.c:52

	return 0;
     a30:	4781                	li	a5,0
D:\Propel_Study\I2C_SPI_Programming_singlecore\Workspace\I2C_SPI_GPIO\Debug/../src/bsp/driver/i2c_controller/i2c_master.c:53
}
     a32:	853e                	mv	a0,a5
     a34:	4472                	lw	s0,28(sp)
     a36:	6105                	addi	sp,sp,32
     a38:	8082                	ret

00000a3a <i2c_master_config>:
i2c_master_config():
D:\Propel_Study\I2C_SPI_Programming_singlecore\Workspace\I2C_SPI_GPIO\Debug/../src/bsp/driver/i2c_controller/i2c_master.c:57

uint8_t i2c_master_config(struct i2cm_instance * this_i2cm,
			  uint8_t i2c_mode, uint16_t interrupts_en, uint16_t pre_scaler)
{
     a3a:	1101                	addi	sp,sp,-32
     a3c:	ce06                	sw	ra,28(sp)
     a3e:	cc22                	sw	s0,24(sp)
     a40:	1000                	addi	s0,sp,32
     a42:	fea42623          	sw	a0,-20(s0)
     a46:	87ae                	mv	a5,a1
     a48:	8736                	mv	a4,a3
     a4a:	fef405a3          	sb	a5,-21(s0)
     a4e:	87b2                	mv	a5,a2
     a50:	fef41423          	sh	a5,-24(s0)
     a54:	87ba                	mv	a5,a4
     a56:	fef41323          	sh	a5,-26(s0)
D:\Propel_Study\I2C_SPI_Programming_singlecore\Workspace\I2C_SPI_GPIO\Debug/../src/bsp/driver/i2c_controller/i2c_master.c:58
	if (NULL == this_i2cm) {
     a5a:	fec42783          	lw	a5,-20(s0)
     a5e:	e399                	bnez	a5,a64 <i2c_master_config+0x2a>
D:\Propel_Study\I2C_SPI_Programming_singlecore\Workspace\I2C_SPI_GPIO\Debug/../src/bsp/driver/i2c_controller/i2c_master.c:59
        return 1;
     a60:	4785                	li	a5,1
     a62:	a0e9                	j	b2c <i2c_master_config+0xf2>
D:\Propel_Study\I2C_SPI_Programming_singlecore\Workspace\I2C_SPI_GPIO\Debug/../src/bsp/driver/i2c_controller/i2c_master.c:62
	}

	if(interrupts_en != this_i2cm->interrupts_en)
     a64:	fec42783          	lw	a5,-20(s0)
     a68:	00a7d783          	lhu	a5,10(a5)
     a6c:	fe845703          	lhu	a4,-24(s0)
     a70:	04f70363          	beq	a4,a5,ab6 <i2c_master_config+0x7c>
D:\Propel_Study\I2C_SPI_Programming_singlecore\Workspace\I2C_SPI_GPIO\Debug/../src/bsp/driver/i2c_controller/i2c_master.c:64
	{
		this_i2cm->interrupts_en = interrupts_en;
     a74:	fec42783          	lw	a5,-20(s0)
     a78:	fe845703          	lhu	a4,-24(s0)
     a7c:	00e79523          	sh	a4,10(a5)
D:\Propel_Study\I2C_SPI_Programming_singlecore\Workspace\I2C_SPI_GPIO\Debug/../src/bsp/driver/i2c_controller/i2c_master.c:65
	    reg_8b_write(this_i2cm->base_address | REG_INT_ENABLE1,interrupts_en);
     a80:	fec42783          	lw	a5,-20(s0)
     a84:	43dc                	lw	a5,4(a5)
     a86:	0207e793          	ori	a5,a5,32
     a8a:	fe845703          	lhu	a4,-24(s0)
     a8e:	0ff77713          	zext.b	a4,a4
     a92:	85ba                	mv	a1,a4
     a94:	853e                	mv	a0,a5
     a96:	3dad                	jal	910 <reg_8b_write>
D:\Propel_Study\I2C_SPI_Programming_singlecore\Workspace\I2C_SPI_GPIO\Debug/../src/bsp/driver/i2c_controller/i2c_master.c:66
	    reg_8b_write(this_i2cm->base_address | REG_INT_ENABLE2,interrupts_en >> 8);
     a98:	fec42783          	lw	a5,-20(s0)
     a9c:	43dc                	lw	a5,4(a5)
     a9e:	02c7e713          	ori	a4,a5,44
     aa2:	fe845783          	lhu	a5,-24(s0)
     aa6:	83a1                	srli	a5,a5,0x8
     aa8:	07c2                	slli	a5,a5,0x10
     aaa:	83c1                	srli	a5,a5,0x10
     aac:	0ff7f793          	zext.b	a5,a5
     ab0:	85be                	mv	a1,a5
     ab2:	853a                	mv	a0,a4
     ab4:	3db1                	jal	910 <reg_8b_write>
D:\Propel_Study\I2C_SPI_Programming_singlecore\Workspace\I2C_SPI_GPIO\Debug/../src/bsp/driver/i2c_controller/i2c_master.c:70
	}

    // address mode set, 7-bit/10-bit mode
	if(this_i2cm->addr_mode != i2c_mode)
     ab6:	fec42783          	lw	a5,-20(s0)
     aba:	0097c783          	lbu	a5,9(a5)
     abe:	feb44703          	lbu	a4,-21(s0)
     ac2:	02f70863          	beq	a4,a5,af2 <i2c_master_config+0xb8>
D:\Propel_Study\I2C_SPI_Programming_singlecore\Workspace\I2C_SPI_GPIO\Debug/../src/bsp/driver/i2c_controller/i2c_master.c:72
	{
		this_i2cm->addr_mode = i2c_mode;
     ac6:	fec42783          	lw	a5,-20(s0)
     aca:	feb44703          	lbu	a4,-21(s0)
     ace:	00e784a3          	sb	a4,9(a5)
D:\Propel_Study\I2C_SPI_Programming_singlecore\Workspace\I2C_SPI_GPIO\Debug/../src/bsp/driver/i2c_controller/i2c_master.c:73
		if (i2c_mode == I2CM_ADDR_10BIT_MODE) {
     ad2:	feb44703          	lbu	a4,-21(s0)
     ad6:	47a9                	li	a5,10
     ad8:	00f71d63          	bne	a4,a5,af2 <i2c_master_config+0xb8>
D:\Propel_Study\I2C_SPI_Programming_singlecore\Workspace\I2C_SPI_GPIO\Debug/../src/bsp/driver/i2c_controller/i2c_master.c:74
			reg_8b_modify(this_i2cm->base_address | REG_MODE,
     adc:	fec42783          	lw	a5,-20(s0)
     ae0:	43dc                	lw	a5,4(a5)
     ae2:	0147e793          	ori	a5,a5,20
     ae6:	02000613          	li	a2,32
     aea:	02000593          	li	a1,32
     aee:	853e                	mv	a0,a5
     af0:	35b9                	jal	93e <reg_8b_modify>
D:\Propel_Study\I2C_SPI_Programming_singlecore\Workspace\I2C_SPI_GPIO\Debug/../src/bsp/driver/i2c_controller/i2c_master.c:80
					I2C_ADDR_MODE, I2C_ADDR_MODE);
		}
	}

	//set the pre_scaler to tune the i2c clock
	reg_8b_modify(this_i2cm->base_address | REG_MODE,
     af2:	fec42783          	lw	a5,-20(s0)
     af6:	43dc                	lw	a5,4(a5)
     af8:	0147e713          	ori	a4,a5,20
     afc:	fe645783          	lhu	a5,-26(s0)
     b00:	83a1                	srli	a5,a5,0x8
     b02:	07c2                	slli	a5,a5,0x10
     b04:	83c1                	srli	a5,a5,0x10
     b06:	0ff7f793          	zext.b	a5,a5
     b0a:	863e                	mv	a2,a5
     b0c:	458d                	li	a1,3
     b0e:	853a                	mv	a0,a4
     b10:	353d                	jal	93e <reg_8b_modify>
D:\Propel_Study\I2C_SPI_Programming_singlecore\Workspace\I2C_SPI_GPIO\Debug/../src/bsp/driver/i2c_controller/i2c_master.c:82
			I2C_CLK_DIV_HIGH, pre_scaler>>8);
	reg_8b_write(this_i2cm->base_address | REG_CLK_DIV_LSB,pre_scaler);
     b12:	fec42783          	lw	a5,-20(s0)
     b16:	43dc                	lw	a5,4(a5)
     b18:	0187e793          	ori	a5,a5,24
     b1c:	fe645703          	lhu	a4,-26(s0)
     b20:	0ff77713          	zext.b	a4,a4
     b24:	85ba                	mv	a1,a4
     b26:	853e                	mv	a0,a5
     b28:	33e5                	jal	910 <reg_8b_write>
D:\Propel_Study\I2C_SPI_Programming_singlecore\Workspace\I2C_SPI_GPIO\Debug/../src/bsp/driver/i2c_controller/i2c_master.c:84

	return 0;
     b2a:	4781                	li	a5,0
D:\Propel_Study\I2C_SPI_Programming_singlecore\Workspace\I2C_SPI_GPIO\Debug/../src/bsp/driver/i2c_controller/i2c_master.c:85
}
     b2c:	853e                	mv	a0,a5
     b2e:	40f2                	lw	ra,28(sp)
     b30:	4462                	lw	s0,24(sp)
     b32:	6105                	addi	sp,sp,32
     b34:	8082                	ret

00000b36 <i2c_master_repeated_start>:
i2c_master_repeated_start():
D:\Propel_Study\I2C_SPI_Programming_singlecore\Workspace\I2C_SPI_GPIO\Debug/../src/bsp/driver/i2c_controller/i2c_master.c:183


uint8_t i2c_master_repeated_start(struct i2cm_instance *this_i2cm,
		uint16_t address,
		uint8_t wr_data_size ,uint8_t * wr_data_buffer , uint8_t rd_data_size , uint8_t * rd_data_buffer)
{
     b36:	7179                	addi	sp,sp,-48
     b38:	d606                	sw	ra,44(sp)
     b3a:	d422                	sw	s0,40(sp)
     b3c:	1800                	addi	s0,sp,48
     b3e:	fca42e23          	sw	a0,-36(s0)
     b42:	fcd42a23          	sw	a3,-44(s0)
     b46:	fcf42823          	sw	a5,-48(s0)
     b4a:	87ae                	mv	a5,a1
     b4c:	fcf41d23          	sh	a5,-38(s0)
     b50:	87b2                	mv	a5,a2
     b52:	fcf40ca3          	sb	a5,-39(s0)
     b56:	87ba                	mv	a5,a4
     b58:	fcf40c23          	sb	a5,-40(s0)
D:\Propel_Study\I2C_SPI_Programming_singlecore\Workspace\I2C_SPI_GPIO\Debug/../src/bsp/driver/i2c_controller/i2c_master.c:185

	uint8_t data_count = 0;
     b5c:	fe0407a3          	sb	zero,-17(s0)
D:\Propel_Study\I2C_SPI_Programming_singlecore\Workspace\I2C_SPI_GPIO\Debug/../src/bsp/driver/i2c_controller/i2c_master.c:186
	uint8_t i2c_status = 0;
     b60:	fe040723          	sb	zero,-18(s0)
D:\Propel_Study\I2C_SPI_Programming_singlecore\Workspace\I2C_SPI_GPIO\Debug/../src/bsp/driver/i2c_controller/i2c_master.c:187
	uint8_t status = 0;
     b64:	fe0406a3          	sb	zero,-19(s0)
D:\Propel_Study\I2C_SPI_Programming_singlecore\Workspace\I2C_SPI_GPIO\Debug/../src/bsp/driver/i2c_controller/i2c_master.c:188
	uint8_t i2c_int2 = 0;
     b68:	fe040623          	sb	zero,-20(s0)
D:\Propel_Study\I2C_SPI_Programming_singlecore\Workspace\I2C_SPI_GPIO\Debug/../src/bsp/driver/i2c_controller/i2c_master.c:189
	uint8_t fifo_status = 0;
     b6c:	fe0405a3          	sb	zero,-21(s0)
D:\Propel_Study\I2C_SPI_Programming_singlecore\Workspace\I2C_SPI_GPIO\Debug/../src/bsp/driver/i2c_controller/i2c_master.c:191

	if (NULL == this_i2cm || NULL == wr_data_buffer )
     b70:	fdc42783          	lw	a5,-36(s0)
     b74:	c781                	beqz	a5,b7c <i2c_master_repeated_start+0x46>
D:\Propel_Study\I2C_SPI_Programming_singlecore\Workspace\I2C_SPI_GPIO\Debug/../src/bsp/driver/i2c_controller/i2c_master.c:191 (discriminator 1)
     b76:	fd442783          	lw	a5,-44(s0)
     b7a:	e399                	bnez	a5,b80 <i2c_master_repeated_start+0x4a>
D:\Propel_Study\I2C_SPI_Programming_singlecore\Workspace\I2C_SPI_GPIO\Debug/../src/bsp/driver/i2c_controller/i2c_master.c:193
	{
		return 1;
     b7c:	4785                	li	a5,1
     b7e:	ae6d                	j	f38 <i2c_master_repeated_start+0x402>
D:\Propel_Study\I2C_SPI_Programming_singlecore\Workspace\I2C_SPI_GPIO\Debug/../src/bsp/driver/i2c_controller/i2c_master.c:197
	}

	// config the register before issue the transaction
	reg_8b_write(this_i2cm->base_address | REG_BYTE_CNT, wr_data_size);
     b80:	fdc42783          	lw	a5,-36(s0)
     b84:	43dc                	lw	a5,4(a5)
     b86:	0107e793          	ori	a5,a5,16
     b8a:	fd944703          	lbu	a4,-39(s0)
     b8e:	85ba                	mv	a1,a4
     b90:	853e                	mv	a0,a5
     b92:	3bbd                	jal	910 <reg_8b_write>
D:\Propel_Study\I2C_SPI_Programming_singlecore\Workspace\I2C_SPI_GPIO\Debug/../src/bsp/driver/i2c_controller/i2c_master.c:199

	reg_8b_write(this_i2cm->base_address | REG_SLAVE_ADDR_LOW,
     b94:	fdc42783          	lw	a5,-36(s0)
     b98:	43dc                	lw	a5,4(a5)
     b9a:	0047e713          	ori	a4,a5,4
D:\Propel_Study\I2C_SPI_Programming_singlecore\Workspace\I2C_SPI_GPIO\Debug/../src/bsp/driver/i2c_controller/i2c_master.c:200
		      address & 0x7F);
     b9e:	fda45783          	lhu	a5,-38(s0)
     ba2:	0ff7f793          	zext.b	a5,a5
D:\Propel_Study\I2C_SPI_Programming_singlecore\Workspace\I2C_SPI_GPIO\Debug/../src/bsp/driver/i2c_controller/i2c_master.c:199
	reg_8b_write(this_i2cm->base_address | REG_SLAVE_ADDR_LOW,
     ba6:	07f7f793          	andi	a5,a5,127
     baa:	0ff7f793          	zext.b	a5,a5
     bae:	85be                	mv	a1,a5
     bb0:	853a                	mv	a0,a4
     bb2:	3bb9                	jal	910 <reg_8b_write>
D:\Propel_Study\I2C_SPI_Programming_singlecore\Workspace\I2C_SPI_GPIO\Debug/../src/bsp/driver/i2c_controller/i2c_master.c:202

    if(this_i2cm->addr_mode==I2CM_ADDR_10BIT_MODE)  // 10-bit mode
     bb4:	fdc42783          	lw	a5,-36(s0)
     bb8:	0097c703          	lbu	a4,9(a5)
     bbc:	47a9                	li	a5,10
     bbe:	02f71463          	bne	a4,a5,be6 <i2c_master_repeated_start+0xb0>
D:\Propel_Study\I2C_SPI_Programming_singlecore\Workspace\I2C_SPI_GPIO\Debug/../src/bsp/driver/i2c_controller/i2c_master.c:204
    {
        reg_8b_write(this_i2cm->base_address | REG_SLAVE_ADDR_HIGH,
     bc2:	fdc42783          	lw	a5,-36(s0)
     bc6:	43dc                	lw	a5,4(a5)
     bc8:	0087e713          	ori	a4,a5,8
D:\Propel_Study\I2C_SPI_Programming_singlecore\Workspace\I2C_SPI_GPIO\Debug/../src/bsp/driver/i2c_controller/i2c_master.c:205
	              (address>>8) & 0x03);
     bcc:	fda45783          	lhu	a5,-38(s0)
     bd0:	83a1                	srli	a5,a5,0x8
     bd2:	07c2                	slli	a5,a5,0x10
     bd4:	83c1                	srli	a5,a5,0x10
     bd6:	0ff7f793          	zext.b	a5,a5
D:\Propel_Study\I2C_SPI_Programming_singlecore\Workspace\I2C_SPI_GPIO\Debug/../src/bsp/driver/i2c_controller/i2c_master.c:204
        reg_8b_write(this_i2cm->base_address | REG_SLAVE_ADDR_HIGH,
     bda:	8b8d                	andi	a5,a5,3
     bdc:	0ff7f793          	zext.b	a5,a5
     be0:	85be                	mv	a1,a5
     be2:	853a                	mv	a0,a4
     be4:	3335                	jal	910 <reg_8b_write>
D:\Propel_Study\I2C_SPI_Programming_singlecore\Workspace\I2C_SPI_GPIO\Debug/../src/bsp/driver/i2c_controller/i2c_master.c:209
    }

    // set to write mode
    reg_8b_modify(this_i2cm->base_address | REG_MODE, I2C_TXRX_MODE, 0);
     be6:	fdc42783          	lw	a5,-36(s0)
     bea:	43dc                	lw	a5,4(a5)
     bec:	0147e793          	ori	a5,a5,20
     bf0:	4601                	li	a2,0
     bf2:	45a1                	li	a1,8
     bf4:	853e                	mv	a0,a5
     bf6:	33a1                	jal	93e <reg_8b_modify>
D:\Propel_Study\I2C_SPI_Programming_singlecore\Workspace\I2C_SPI_GPIO\Debug/../src/bsp/driver/i2c_controller/i2c_master.c:212

    // clear status bits
    reg_8b_read(this_i2cm->base_address | REG_INT_STATUS1, &status);
     bf8:	fdc42783          	lw	a5,-36(s0)
     bfc:	43dc                	lw	a5,4(a5)
     bfe:	01c7e793          	ori	a5,a5,28
     c02:	fed40713          	addi	a4,s0,-19
     c06:	85ba                	mv	a1,a4
     c08:	853e                	mv	a0,a5
     c0a:	3365                	jal	9b2 <reg_8b_read>
D:\Propel_Study\I2C_SPI_Programming_singlecore\Workspace\I2C_SPI_GPIO\Debug/../src/bsp/driver/i2c_controller/i2c_master.c:213
    reg_8b_write(this_i2cm->base_address | REG_INT_STATUS1, status);
     c0c:	fdc42783          	lw	a5,-36(s0)
     c10:	43dc                	lw	a5,4(a5)
     c12:	01c7e793          	ori	a5,a5,28
     c16:	fed44703          	lbu	a4,-19(s0)
     c1a:	85ba                	mv	a1,a4
     c1c:	853e                	mv	a0,a5
     c1e:	39cd                	jal	910 <reg_8b_write>
D:\Propel_Study\I2C_SPI_Programming_singlecore\Workspace\I2C_SPI_GPIO\Debug/../src/bsp/driver/i2c_controller/i2c_master.c:214
    reg_8b_read(this_i2cm->base_address | REG_INT_STATUS2, &i2c_int2);
     c20:	fdc42783          	lw	a5,-36(s0)
     c24:	43dc                	lw	a5,4(a5)
     c26:	0287e793          	ori	a5,a5,40
     c2a:	fec40713          	addi	a4,s0,-20
     c2e:	85ba                	mv	a1,a4
     c30:	853e                	mv	a0,a5
     c32:	3341                	jal	9b2 <reg_8b_read>
D:\Propel_Study\I2C_SPI_Programming_singlecore\Workspace\I2C_SPI_GPIO\Debug/../src/bsp/driver/i2c_controller/i2c_master.c:215
    reg_8b_write(this_i2cm->base_address | REG_INT_STATUS2, i2c_int2);
     c34:	fdc42783          	lw	a5,-36(s0)
     c38:	43dc                	lw	a5,4(a5)
     c3a:	0287e793          	ori	a5,a5,40
     c3e:	fec44703          	lbu	a4,-20(s0)
     c42:	85ba                	mv	a1,a4
     c44:	853e                	mv	a0,a5
     c46:	31e9                	jal	910 <reg_8b_write>
D:\Propel_Study\I2C_SPI_Programming_singlecore\Workspace\I2C_SPI_GPIO\Debug/../src/bsp/driver/i2c_controller/i2c_master.c:217

    while (data_count < wr_data_size)
     c48:	a0a1                	j	c90 <i2c_master_repeated_start+0x15a>
D:\Propel_Study\I2C_SPI_Programming_singlecore\Workspace\I2C_SPI_GPIO\Debug/../src/bsp/driver/i2c_controller/i2c_master.c:220
    {
    	// check tx fifo level,
        reg_8b_read(this_i2cm->base_address | REG_INT_STATUS1, &status);
     c4a:	fdc42783          	lw	a5,-36(s0)
     c4e:	43dc                	lw	a5,4(a5)
     c50:	01c7e793          	ori	a5,a5,28
     c54:	fed40713          	addi	a4,s0,-19
     c58:	85ba                	mv	a1,a4
     c5a:	853e                	mv	a0,a5
     c5c:	3b99                	jal	9b2 <reg_8b_read>
D:\Propel_Study\I2C_SPI_Programming_singlecore\Workspace\I2C_SPI_GPIO\Debug/../src/bsp/driver/i2c_controller/i2c_master.c:223

		// if tx fifo is full, stop loading fifo for now, resume in interrupt or polling loop
		if ( (status & TX_FIFO_FULL_MASK) != 0 ) {
     c5e:	fed44783          	lbu	a5,-19(s0)
     c62:	0207f793          	andi	a5,a5,32
     c66:	ef85                	bnez	a5,c9e <i2c_master_repeated_start+0x168>
D:\Propel_Study\I2C_SPI_Programming_singlecore\Workspace\I2C_SPI_GPIO\Debug/../src/bsp/driver/i2c_controller/i2c_master.c:227
			break;
		}

        reg_8b_write(this_i2cm->base_address | REG_DATA_BUFFER, *wr_data_buffer);  // push the data into tx buffer
     c68:	fdc42783          	lw	a5,-36(s0)
     c6c:	43d8                	lw	a4,4(a5)
     c6e:	fd442783          	lw	a5,-44(s0)
     c72:	0007c783          	lbu	a5,0(a5)
     c76:	85be                	mv	a1,a5
     c78:	853a                	mv	a0,a4
     c7a:	3959                	jal	910 <reg_8b_write>
D:\Propel_Study\I2C_SPI_Programming_singlecore\Workspace\I2C_SPI_GPIO\Debug/../src/bsp/driver/i2c_controller/i2c_master.c:230

        // update the counter and data buffer pointer
        wr_data_buffer++;
     c7c:	fd442783          	lw	a5,-44(s0)
     c80:	0785                	addi	a5,a5,1
     c82:	fcf42a23          	sw	a5,-44(s0)
D:\Propel_Study\I2C_SPI_Programming_singlecore\Workspace\I2C_SPI_GPIO\Debug/../src/bsp/driver/i2c_controller/i2c_master.c:231
        data_count++;
     c86:	fef44783          	lbu	a5,-17(s0)
     c8a:	0785                	addi	a5,a5,1
     c8c:	fef407a3          	sb	a5,-17(s0)
D:\Propel_Study\I2C_SPI_Programming_singlecore\Workspace\I2C_SPI_GPIO\Debug/../src/bsp/driver/i2c_controller/i2c_master.c:217
    while (data_count < wr_data_size)
     c90:	fef44703          	lbu	a4,-17(s0)
     c94:	fd944783          	lbu	a5,-39(s0)
     c98:	faf769e3          	bltu	a4,a5,c4a <i2c_master_repeated_start+0x114>
     c9c:	a011                	j	ca0 <i2c_master_repeated_start+0x16a>
D:\Propel_Study\I2C_SPI_Programming_singlecore\Workspace\I2C_SPI_GPIO\Debug/../src/bsp/driver/i2c_controller/i2c_master.c:224
			break;
     c9e:	0001                	nop
D:\Propel_Study\I2C_SPI_Programming_singlecore\Workspace\I2C_SPI_GPIO\Debug/../src/bsp/driver/i2c_controller/i2c_master.c:234
    }

    if(this_i2cm->state == I2CM_STATE_IDLE)
     ca0:	fdc42783          	lw	a5,-36(s0)
     ca4:	0087c783          	lbu	a5,8(a5)
     ca8:	ef99                	bnez	a5,cc6 <i2c_master_repeated_start+0x190>
D:\Propel_Study\I2C_SPI_Programming_singlecore\Workspace\I2C_SPI_GPIO\Debug/../src/bsp/driver/i2c_controller/i2c_master.c:237
    {
    	// start the transaction
    	this_i2cm->state = I2CM_STATE_WRITE;
     caa:	fdc42783          	lw	a5,-36(s0)
     cae:	4709                	li	a4,2
     cb0:	00e78423          	sb	a4,8(a5)
D:\Propel_Study\I2C_SPI_Programming_singlecore\Workspace\I2C_SPI_GPIO\Debug/../src/bsp/driver/i2c_controller/i2c_master.c:238
    	reg_8b_write(this_i2cm->base_address | REG_CONFIG, I2C_START | I2C_MASTER_REPEATED_START);
     cb4:	fdc42783          	lw	a5,-36(s0)
     cb8:	43dc                	lw	a5,4(a5)
     cba:	00c7e793          	ori	a5,a5,12
     cbe:	45a5                	li	a1,9
     cc0:	853e                	mv	a0,a5
     cc2:	31b9                	jal	910 <reg_8b_write>
     cc4:	a019                	j	cca <i2c_master_repeated_start+0x194>
D:\Propel_Study\I2C_SPI_Programming_singlecore\Workspace\I2C_SPI_GPIO\Debug/../src/bsp/driver/i2c_controller/i2c_master.c:242
    }
    else
    {
    	return 1;
     cc6:	4785                	li	a5,1
     cc8:	ac85                	j	f38 <i2c_master_repeated_start+0x402>
D:\Propel_Study\I2C_SPI_Programming_singlecore\Workspace\I2C_SPI_GPIO\Debug/../src/bsp/driver/i2c_controller/i2c_master.c:250
#if !INT_MODE
    // check the status until transfer done
    while(1)
    {
    	// cycle completes when all bytes are transmitted or a NACK is received or an ERROR is detected
    	reg_8b_read(this_i2cm->base_address | REG_INT_STATUS1, &status);
     cca:	fdc42783          	lw	a5,-36(s0)
     cce:	43dc                	lw	a5,4(a5)
     cd0:	01c7e793          	ori	a5,a5,28
     cd4:	fed40713          	addi	a4,s0,-19
     cd8:	85ba                	mv	a1,a4
     cda:	853e                	mv	a0,a5
     cdc:	39d9                	jal	9b2 <reg_8b_read>
D:\Propel_Study\I2C_SPI_Programming_singlecore\Workspace\I2C_SPI_GPIO\Debug/../src/bsp/driver/i2c_controller/i2c_master.c:251
        if (status & I2C_TRANSFER_COMP_MASK)
     cde:	fed44783          	lbu	a5,-19(s0)
     ce2:	07e2                	slli	a5,a5,0x18
     ce4:	87e1                	srai	a5,a5,0x18
     ce6:	0007d763          	bgez	a5,cf4 <i2c_master_repeated_start+0x1be>
D:\Propel_Study\I2C_SPI_Programming_singlecore\Workspace\I2C_SPI_GPIO\Debug/../src/bsp/driver/i2c_controller/i2c_master.c:253
        {
        	this_i2cm->state = I2CM_STATE_IDLE;
     cea:	fdc42783          	lw	a5,-36(s0)
     cee:	00078423          	sb	zero,8(a5)
D:\Propel_Study\I2C_SPI_Programming_singlecore\Workspace\I2C_SPI_GPIO\Debug/../src/bsp/driver/i2c_controller/i2c_master.c:254
            break;
     cf2:	a04d                	j	d94 <i2c_master_repeated_start+0x25e>
D:\Propel_Study\I2C_SPI_Programming_singlecore\Workspace\I2C_SPI_GPIO\Debug/../src/bsp/driver/i2c_controller/i2c_master.c:259
        }


    	// still have bytes to send
		if (data_count < wr_data_size)
     cf4:	fef44703          	lbu	a4,-17(s0)
     cf8:	fd944783          	lbu	a5,-39(s0)
     cfc:	04f77463          	bgeu	a4,a5,d44 <i2c_master_repeated_start+0x20e>
D:\Propel_Study\I2C_SPI_Programming_singlecore\Workspace\I2C_SPI_GPIO\Debug/../src/bsp/driver/i2c_controller/i2c_master.c:262
		{
			// load any additional bytes into tx fifo when it becomes almost empty
			reg_8b_read(this_i2cm->base_address | FIFO_STATUS_REG, &fifo_status);
     d00:	fdc42783          	lw	a5,-36(s0)
     d04:	43dc                	lw	a5,4(a5)
     d06:	0347e793          	ori	a5,a5,52
     d0a:	feb40713          	addi	a4,s0,-21
     d0e:	85ba                	mv	a1,a4
     d10:	853e                	mv	a0,a5
     d12:	3145                	jal	9b2 <reg_8b_read>
D:\Propel_Study\I2C_SPI_Programming_singlecore\Workspace\I2C_SPI_GPIO\Debug/../src/bsp/driver/i2c_controller/i2c_master.c:263
			if (fifo_status & TX_FIFO_AEMPTY_MASK)	// if tx fifo is almost empty
     d14:	feb44783          	lbu	a5,-21(s0)
     d18:	8bc1                	andi	a5,a5,16
     d1a:	c78d                	beqz	a5,d44 <i2c_master_repeated_start+0x20e>
D:\Propel_Study\I2C_SPI_Programming_singlecore\Workspace\I2C_SPI_GPIO\Debug/../src/bsp/driver/i2c_controller/i2c_master.c:265
			{
				reg_8b_write(this_i2cm->base_address | REG_DATA_BUFFER, *wr_data_buffer);  // push the data into tx buffer
     d1c:	fdc42783          	lw	a5,-36(s0)
     d20:	43d8                	lw	a4,4(a5)
     d22:	fd442783          	lw	a5,-44(s0)
     d26:	0007c783          	lbu	a5,0(a5)
     d2a:	85be                	mv	a1,a5
     d2c:	853a                	mv	a0,a4
     d2e:	36cd                	jal	910 <reg_8b_write>
D:\Propel_Study\I2C_SPI_Programming_singlecore\Workspace\I2C_SPI_GPIO\Debug/../src/bsp/driver/i2c_controller/i2c_master.c:268

				// update the counter and data buffer pointer
				wr_data_buffer++;
     d30:	fd442783          	lw	a5,-44(s0)
     d34:	0785                	addi	a5,a5,1
     d36:	fcf42a23          	sw	a5,-44(s0)
D:\Propel_Study\I2C_SPI_Programming_singlecore\Workspace\I2C_SPI_GPIO\Debug/../src/bsp/driver/i2c_controller/i2c_master.c:269
				data_count++;
     d3a:	fef44783          	lbu	a5,-17(s0)
     d3e:	0785                	addi	a5,a5,1
     d40:	fef407a3          	sb	a5,-17(s0)
D:\Propel_Study\I2C_SPI_Programming_singlecore\Workspace\I2C_SPI_GPIO\Debug/../src/bsp/driver/i2c_controller/i2c_master.c:274
			}
        }

        // check for I2C errors including NACK
    	reg_8b_read(this_i2cm->base_address | REG_INT_STATUS2, &i2c_int2);
     d44:	fdc42783          	lw	a5,-36(s0)
     d48:	43dc                	lw	a5,4(a5)
     d4a:	0287e793          	ori	a5,a5,40
     d4e:	fec40713          	addi	a4,s0,-20
     d52:	85ba                	mv	a1,a4
     d54:	853e                	mv	a0,a5
     d56:	39b1                	jal	9b2 <reg_8b_read>
D:\Propel_Study\I2C_SPI_Programming_singlecore\Workspace\I2C_SPI_GPIO\Debug/../src/bsp/driver/i2c_controller/i2c_master.c:275
        if (i2c_int2 & I2C_ERR)
     d58:	fec44783          	lbu	a5,-20(s0)
     d5c:	8bbd                	andi	a5,a5,15
     d5e:	d7b5                	beqz	a5,cca <i2c_master_repeated_start+0x194>
D:\Propel_Study\I2C_SPI_Programming_singlecore\Workspace\I2C_SPI_GPIO\Debug/../src/bsp/driver/i2c_controller/i2c_master.c:278
        {
			// reset the i2c master
			reg_8b_modify(this_i2cm->base_address | REG_CONFIG, I2C_MASTER_RESET, I2C_MASTER_RESET);
     d60:	fdc42783          	lw	a5,-36(s0)
     d64:	43dc                	lw	a5,4(a5)
     d66:	00c7e793          	ori	a5,a5,12
     d6a:	4611                	li	a2,4
     d6c:	4591                	li	a1,4
     d6e:	853e                	mv	a0,a5
     d70:	36f9                	jal	93e <reg_8b_modify>
D:\Propel_Study\I2C_SPI_Programming_singlecore\Workspace\I2C_SPI_GPIO\Debug/../src/bsp/driver/i2c_controller/i2c_master.c:279
			reg_8b_modify(this_i2cm->base_address | REG_CONFIG, I2C_MASTER_RESET, ~I2C_MASTER_RESET);
     d72:	fdc42783          	lw	a5,-36(s0)
     d76:	43dc                	lw	a5,4(a5)
     d78:	00c7e793          	ori	a5,a5,12
     d7c:	0fb00613          	li	a2,251
     d80:	4591                	li	a1,4
     d82:	853e                	mv	a0,a5
     d84:	3e6d                	jal	93e <reg_8b_modify>
D:\Propel_Study\I2C_SPI_Programming_singlecore\Workspace\I2C_SPI_GPIO\Debug/../src/bsp/driver/i2c_controller/i2c_master.c:281

        	i2c_status = 1;
     d86:	4785                	li	a5,1
     d88:	fef40723          	sb	a5,-18(s0)
D:\Propel_Study\I2C_SPI_Programming_singlecore\Workspace\I2C_SPI_GPIO\Debug/../src/bsp/driver/i2c_controller/i2c_master.c:282
        	this_i2cm->state = I2CM_STATE_IDLE;
     d8c:	fdc42783          	lw	a5,-36(s0)
     d90:	00078423          	sb	zero,8(a5)
D:\Propel_Study\I2C_SPI_Programming_singlecore\Workspace\I2C_SPI_GPIO\Debug/../src/bsp/driver/i2c_controller/i2c_master.c:289
        }
    }
#endif

    //To perform read transaction of a combined I2C transaction:
	fifo_status = 0;
     d94:	fe0405a3          	sb	zero,-21(s0)
D:\Propel_Study\I2C_SPI_Programming_singlecore\Workspace\I2C_SPI_GPIO\Debug/../src/bsp/driver/i2c_controller/i2c_master.c:290
	i2c_int2 = 0;
     d98:	fe040623          	sb	zero,-20(s0)
D:\Propel_Study\I2C_SPI_Programming_singlecore\Workspace\I2C_SPI_GPIO\Debug/../src/bsp/driver/i2c_controller/i2c_master.c:291
	data_count = 0;
     d9c:	fe0407a3          	sb	zero,-17(s0)
D:\Propel_Study\I2C_SPI_Programming_singlecore\Workspace\I2C_SPI_GPIO\Debug/../src/bsp/driver/i2c_controller/i2c_master.c:292
	i2c_status = 1;
     da0:	4785                	li	a5,1
     da2:	fef40723          	sb	a5,-18(s0)
D:\Propel_Study\I2C_SPI_Programming_singlecore\Workspace\I2C_SPI_GPIO\Debug/../src/bsp/driver/i2c_controller/i2c_master.c:294
	// assert this_i2cm and data_buffer
	if (NULL == this_i2cm ||NULL == rd_data_buffer )
     da6:	fdc42783          	lw	a5,-36(s0)
     daa:	c781                	beqz	a5,db2 <i2c_master_repeated_start+0x27c>
D:\Propel_Study\I2C_SPI_Programming_singlecore\Workspace\I2C_SPI_GPIO\Debug/../src/bsp/driver/i2c_controller/i2c_master.c:294 (discriminator 1)
     dac:	fd042783          	lw	a5,-48(s0)
     db0:	e399                	bnez	a5,db6 <i2c_master_repeated_start+0x280>
D:\Propel_Study\I2C_SPI_Programming_singlecore\Workspace\I2C_SPI_GPIO\Debug/../src/bsp/driver/i2c_controller/i2c_master.c:296
	{
		return 1;
     db2:	4785                	li	a5,1
     db4:	a251                	j	f38 <i2c_master_repeated_start+0x402>
D:\Propel_Study\I2C_SPI_Programming_singlecore\Workspace\I2C_SPI_GPIO\Debug/../src/bsp/driver/i2c_controller/i2c_master.c:300
	}

	// config the register before issue the transaction
	reg_8b_write(this_i2cm->base_address | REG_BYTE_CNT, rd_data_size);
     db6:	fdc42783          	lw	a5,-36(s0)
     dba:	43dc                	lw	a5,4(a5)
     dbc:	0107e793          	ori	a5,a5,16
     dc0:	fd844703          	lbu	a4,-40(s0)
     dc4:	85ba                	mv	a1,a4
     dc6:	853e                	mv	a0,a5
     dc8:	36a1                	jal	910 <reg_8b_write>
D:\Propel_Study\I2C_SPI_Programming_singlecore\Workspace\I2C_SPI_GPIO\Debug/../src/bsp/driver/i2c_controller/i2c_master.c:302

    reg_8b_write(this_i2cm->base_address | REG_SLAVE_ADDR_LOW,
     dca:	fdc42783          	lw	a5,-36(s0)
     dce:	43dc                	lw	a5,4(a5)
     dd0:	0047e713          	ori	a4,a5,4
D:\Propel_Study\I2C_SPI_Programming_singlecore\Workspace\I2C_SPI_GPIO\Debug/../src/bsp/driver/i2c_controller/i2c_master.c:303
              address & 0x7F);
     dd4:	fda45783          	lhu	a5,-38(s0)
     dd8:	0ff7f793          	zext.b	a5,a5
D:\Propel_Study\I2C_SPI_Programming_singlecore\Workspace\I2C_SPI_GPIO\Debug/../src/bsp/driver/i2c_controller/i2c_master.c:302
    reg_8b_write(this_i2cm->base_address | REG_SLAVE_ADDR_LOW,
     ddc:	07f7f793          	andi	a5,a5,127
     de0:	0ff7f793          	zext.b	a5,a5
     de4:	85be                	mv	a1,a5
     de6:	853a                	mv	a0,a4
     de8:	3625                	jal	910 <reg_8b_write>
D:\Propel_Study\I2C_SPI_Programming_singlecore\Workspace\I2C_SPI_GPIO\Debug/../src/bsp/driver/i2c_controller/i2c_master.c:305

    if(this_i2cm->addr_mode==I2CM_ADDR_10BIT_MODE)  // 10-bit mode
     dea:	fdc42783          	lw	a5,-36(s0)
     dee:	0097c703          	lbu	a4,9(a5)
     df2:	47a9                	li	a5,10
     df4:	02f71463          	bne	a4,a5,e1c <i2c_master_repeated_start+0x2e6>
D:\Propel_Study\I2C_SPI_Programming_singlecore\Workspace\I2C_SPI_GPIO\Debug/../src/bsp/driver/i2c_controller/i2c_master.c:307
    {
        reg_8b_write(this_i2cm->base_address | REG_SLAVE_ADDR_HIGH,
     df8:	fdc42783          	lw	a5,-36(s0)
     dfc:	43dc                	lw	a5,4(a5)
     dfe:	0087e713          	ori	a4,a5,8
D:\Propel_Study\I2C_SPI_Programming_singlecore\Workspace\I2C_SPI_GPIO\Debug/../src/bsp/driver/i2c_controller/i2c_master.c:308
                  (address>>8) & 0x03);
     e02:	fda45783          	lhu	a5,-38(s0)
     e06:	83a1                	srli	a5,a5,0x8
     e08:	07c2                	slli	a5,a5,0x10
     e0a:	83c1                	srli	a5,a5,0x10
     e0c:	0ff7f793          	zext.b	a5,a5
D:\Propel_Study\I2C_SPI_Programming_singlecore\Workspace\I2C_SPI_GPIO\Debug/../src/bsp/driver/i2c_controller/i2c_master.c:307
        reg_8b_write(this_i2cm->base_address | REG_SLAVE_ADDR_HIGH,
     e10:	8b8d                	andi	a5,a5,3
     e12:	0ff7f793          	zext.b	a5,a5
     e16:	85be                	mv	a1,a5
     e18:	853a                	mv	a0,a4
     e1a:	3cdd                	jal	910 <reg_8b_write>
D:\Propel_Study\I2C_SPI_Programming_singlecore\Workspace\I2C_SPI_GPIO\Debug/../src/bsp/driver/i2c_controller/i2c_master.c:312
    }

    // set ti read mode
    reg_8b_modify(this_i2cm->base_address | REG_MODE, I2C_TXRX_MODE, I2C_TXRX_MODE);
     e1c:	fdc42783          	lw	a5,-36(s0)
     e20:	43dc                	lw	a5,4(a5)
     e22:	0147e793          	ori	a5,a5,20
     e26:	4621                	li	a2,8
     e28:	45a1                	li	a1,8
     e2a:	853e                	mv	a0,a5
     e2c:	3e09                	jal	93e <reg_8b_modify>
D:\Propel_Study\I2C_SPI_Programming_singlecore\Workspace\I2C_SPI_GPIO\Debug/../src/bsp/driver/i2c_controller/i2c_master.c:315


    if(this_i2cm->state == I2CM_STATE_IDLE)
     e2e:	fdc42783          	lw	a5,-36(s0)
     e32:	0087c783          	lbu	a5,8(a5)
     e36:	e3b9                	bnez	a5,e7c <i2c_master_repeated_start+0x346>
D:\Propel_Study\I2C_SPI_Programming_singlecore\Workspace\I2C_SPI_GPIO\Debug/../src/bsp/driver/i2c_controller/i2c_master.c:317
    {
    	this_i2cm->state = I2CM_STATE_READ;
     e38:	fdc42783          	lw	a5,-36(s0)
     e3c:	4705                	li	a4,1
     e3e:	00e78423          	sb	a4,8(a5)
D:\Propel_Study\I2C_SPI_Programming_singlecore\Workspace\I2C_SPI_GPIO\Debug/../src/bsp/driver/i2c_controller/i2c_master.c:318
    	reg_8b_write(this_i2cm->base_address | REG_CONFIG, I2C_START);
     e42:	fdc42783          	lw	a5,-36(s0)
     e46:	43dc                	lw	a5,4(a5)
     e48:	00c7e793          	ori	a5,a5,12
     e4c:	4585                	li	a1,1
     e4e:	853e                	mv	a0,a5
     e50:	34c1                	jal	910 <reg_8b_write>
D:\Propel_Study\I2C_SPI_Programming_singlecore\Workspace\I2C_SPI_GPIO\Debug/../src/bsp/driver/i2c_controller/i2c_master.c:329
    }


#if !INT_MODE
    // clear I2C_ERR bits if set
    reg_8b_read(this_i2cm->base_address | REG_INT_STATUS2, &i2c_int2);
     e52:	fdc42783          	lw	a5,-36(s0)
     e56:	43dc                	lw	a5,4(a5)
     e58:	0287e793          	ori	a5,a5,40
     e5c:	fec40713          	addi	a4,s0,-20
     e60:	85ba                	mv	a1,a4
     e62:	853e                	mv	a0,a5
     e64:	36b9                	jal	9b2 <reg_8b_read>
D:\Propel_Study\I2C_SPI_Programming_singlecore\Workspace\I2C_SPI_GPIO\Debug/../src/bsp/driver/i2c_controller/i2c_master.c:330
    reg_8b_write(this_i2cm->base_address | REG_INT_STATUS2, i2c_int2);
     e66:	fdc42783          	lw	a5,-36(s0)
     e6a:	43dc                	lw	a5,4(a5)
     e6c:	0287e793          	ori	a5,a5,40
     e70:	fec44703          	lbu	a4,-20(s0)
     e74:	85ba                	mv	a1,a4
     e76:	853e                	mv	a0,a5
     e78:	3c61                	jal	910 <reg_8b_write>
     e7a:	a019                	j	e80 <i2c_master_repeated_start+0x34a>
D:\Propel_Study\I2C_SPI_Programming_singlecore\Workspace\I2C_SPI_GPIO\Debug/../src/bsp/driver/i2c_controller/i2c_master.c:323
    	return 1;
     e7c:	4785                	li	a5,1
     e7e:	a86d                	j	f38 <i2c_master_repeated_start+0x402>
D:\Propel_Study\I2C_SPI_Programming_singlecore\Workspace\I2C_SPI_GPIO\Debug/../src/bsp/driver/i2c_controller/i2c_master.c:334

	while(1){

		reg_8b_read(this_i2cm->base_address | FIFO_STATUS_REG, &fifo_status);
     e80:	fdc42783          	lw	a5,-36(s0)
     e84:	43dc                	lw	a5,4(a5)
     e86:	0347e793          	ori	a5,a5,52
     e8a:	feb40713          	addi	a4,s0,-21
     e8e:	85ba                	mv	a1,a4
     e90:	853e                	mv	a0,a5
     e92:	3605                	jal	9b2 <reg_8b_read>
D:\Propel_Study\I2C_SPI_Programming_singlecore\Workspace\I2C_SPI_GPIO\Debug/../src/bsp/driver/i2c_controller/i2c_master.c:337

		// if rx fifo not empty, read a byte
		if ( (fifo_status & RX_FIFO_EMPTY_MASK) == 0 )
     e94:	feb44783          	lbu	a5,-21(s0)
     e98:	8b85                	andi	a5,a5,1
     e9a:	eb85                	bnez	a5,eca <i2c_master_repeated_start+0x394>
D:\Propel_Study\I2C_SPI_Programming_singlecore\Workspace\I2C_SPI_GPIO\Debug/../src/bsp/driver/i2c_controller/i2c_master.c:339
	    {
            if (data_count <= rd_data_size) {
     e9c:	fef44703          	lbu	a4,-17(s0)
     ea0:	fd844783          	lbu	a5,-40(s0)
     ea4:	00e7e963          	bltu	a5,a4,eb6 <i2c_master_repeated_start+0x380>
D:\Propel_Study\I2C_SPI_Programming_singlecore\Workspace\I2C_SPI_GPIO\Debug/../src/bsp/driver/i2c_controller/i2c_master.c:341

            	reg_8b_read(this_i2cm->base_address |
     ea8:	fdc42783          	lw	a5,-36(s0)
     eac:	43dc                	lw	a5,4(a5)
     eae:	fd042583          	lw	a1,-48(s0)
     eb2:	853e                	mv	a0,a5
     eb4:	3cfd                	jal	9b2 <reg_8b_read>
D:\Propel_Study\I2C_SPI_Programming_singlecore\Workspace\I2C_SPI_GPIO\Debug/../src/bsp/driver/i2c_controller/i2c_master.c:345
                        REG_DATA_BUFFER, rd_data_buffer);
            }
            // update the counter and data buffer pointer
            rd_data_buffer++;
     eb6:	fd042783          	lw	a5,-48(s0)
     eba:	0785                	addi	a5,a5,1
     ebc:	fcf42823          	sw	a5,-48(s0)
D:\Propel_Study\I2C_SPI_Programming_singlecore\Workspace\I2C_SPI_GPIO\Debug/../src/bsp/driver/i2c_controller/i2c_master.c:346
            data_count++;
     ec0:	fef44783          	lbu	a5,-17(s0)
     ec4:	0785                	addi	a5,a5,1
     ec6:	fef407a3          	sb	a5,-17(s0)
D:\Propel_Study\I2C_SPI_Programming_singlecore\Workspace\I2C_SPI_GPIO\Debug/../src/bsp/driver/i2c_controller/i2c_master.c:349
	    }

	    if(rd_data_size == data_count)
     eca:	fd844703          	lbu	a4,-40(s0)
     ece:	fef44783          	lbu	a5,-17(s0)
     ed2:	00f71963          	bne	a4,a5,ee4 <i2c_master_repeated_start+0x3ae>
D:\Propel_Study\I2C_SPI_Programming_singlecore\Workspace\I2C_SPI_GPIO\Debug/../src/bsp/driver/i2c_controller/i2c_master.c:351
	    {
	    	i2c_status = 0;
     ed6:	fe040723          	sb	zero,-18(s0)
D:\Propel_Study\I2C_SPI_Programming_singlecore\Workspace\I2C_SPI_GPIO\Debug/../src/bsp/driver/i2c_controller/i2c_master.c:352
	    	this_i2cm->state = I2CM_STATE_IDLE;
     eda:	fdc42783          	lw	a5,-36(s0)
     ede:	00078423          	sb	zero,8(a5)
D:\Propel_Study\I2C_SPI_Programming_singlecore\Workspace\I2C_SPI_GPIO\Debug/../src/bsp/driver/i2c_controller/i2c_master.c:353
	    	break;
     ee2:	a889                	j	f34 <i2c_master_repeated_start+0x3fe>
D:\Propel_Study\I2C_SPI_Programming_singlecore\Workspace\I2C_SPI_GPIO\Debug/../src/bsp/driver/i2c_controller/i2c_master.c:357
	    }

	    // check for I2C errors
	    reg_8b_read(this_i2cm->base_address | REG_INT_STATUS2, &i2c_int2);
     ee4:	fdc42783          	lw	a5,-36(s0)
     ee8:	43dc                	lw	a5,4(a5)
     eea:	0287e793          	ori	a5,a5,40
     eee:	fec40713          	addi	a4,s0,-20
     ef2:	85ba                	mv	a1,a4
     ef4:	853e                	mv	a0,a5
     ef6:	3c75                	jal	9b2 <reg_8b_read>
D:\Propel_Study\I2C_SPI_Programming_singlecore\Workspace\I2C_SPI_GPIO\Debug/../src/bsp/driver/i2c_controller/i2c_master.c:358
        if (i2c_int2 & I2C_ERR)
     ef8:	fec44783          	lbu	a5,-20(s0)
     efc:	8bbd                	andi	a5,a5,15
     efe:	d3c9                	beqz	a5,e80 <i2c_master_repeated_start+0x34a>
D:\Propel_Study\I2C_SPI_Programming_singlecore\Workspace\I2C_SPI_GPIO\Debug/../src/bsp/driver/i2c_controller/i2c_master.c:361
        {
			// reset the i2c master
			reg_8b_modify(this_i2cm->base_address | REG_CONFIG, I2C_MASTER_RESET, I2C_MASTER_RESET);
     f00:	fdc42783          	lw	a5,-36(s0)
     f04:	43dc                	lw	a5,4(a5)
     f06:	00c7e793          	ori	a5,a5,12
     f0a:	4611                	li	a2,4
     f0c:	4591                	li	a1,4
     f0e:	853e                	mv	a0,a5
     f10:	343d                	jal	93e <reg_8b_modify>
D:\Propel_Study\I2C_SPI_Programming_singlecore\Workspace\I2C_SPI_GPIO\Debug/../src/bsp/driver/i2c_controller/i2c_master.c:362
			reg_8b_modify(this_i2cm->base_address | REG_CONFIG, I2C_MASTER_RESET, ~I2C_MASTER_RESET);
     f12:	fdc42783          	lw	a5,-36(s0)
     f16:	43dc                	lw	a5,4(a5)
     f18:	00c7e793          	ori	a5,a5,12
     f1c:	0fb00613          	li	a2,251
     f20:	4591                	li	a1,4
     f22:	853e                	mv	a0,a5
     f24:	3c29                	jal	93e <reg_8b_modify>
D:\Propel_Study\I2C_SPI_Programming_singlecore\Workspace\I2C_SPI_GPIO\Debug/../src/bsp/driver/i2c_controller/i2c_master.c:364

        	i2c_status = 1;
     f26:	4785                	li	a5,1
     f28:	fef40723          	sb	a5,-18(s0)
D:\Propel_Study\I2C_SPI_Programming_singlecore\Workspace\I2C_SPI_GPIO\Debug/../src/bsp/driver/i2c_controller/i2c_master.c:365
        	this_i2cm->state = I2CM_STATE_IDLE;
     f2c:	fdc42783          	lw	a5,-36(s0)
     f30:	00078423          	sb	zero,8(a5)
D:\Propel_Study\I2C_SPI_Programming_singlecore\Workspace\I2C_SPI_GPIO\Debug/../src/bsp/driver/i2c_controller/i2c_master.c:373
	}
#else
    this_i2cm->rx_buff = rd_data_buffer;
    this_i2cm->rcv_length = 0;
#endif
	return i2c_status;
     f34:	fee44783          	lbu	a5,-18(s0)
D:\Propel_Study\I2C_SPI_Programming_singlecore\Workspace\I2C_SPI_GPIO\Debug/../src/bsp/driver/i2c_controller/i2c_master.c:375 (discriminator 1)

}
     f38:	853e                	mv	a0,a5
     f3a:	50b2                	lw	ra,44(sp)
     f3c:	5422                	lw	s0,40(sp)
     f3e:	6145                	addi	sp,sp,48
     f40:	8082                	ret

00000f42 <i2c_master_write>:
i2c_master_write():
D:\Propel_Study\I2C_SPI_Programming_singlecore\Workspace\I2C_SPI_GPIO\Debug/../src/bsp/driver/i2c_controller/i2c_master.c:381


uint8_t i2c_master_write(struct i2cm_instance * this_i2cm,
			 uint16_t address,
			 uint8_t data_size, uint8_t * data_buffer)
{
     f42:	7179                	addi	sp,sp,-48
     f44:	d606                	sw	ra,44(sp)
     f46:	d422                	sw	s0,40(sp)
     f48:	1800                	addi	s0,sp,48
     f4a:	fca42e23          	sw	a0,-36(s0)
     f4e:	87ae                	mv	a5,a1
     f50:	8732                	mv	a4,a2
     f52:	fcd42a23          	sw	a3,-44(s0)
     f56:	fcf41d23          	sh	a5,-38(s0)
     f5a:	87ba                	mv	a5,a4
     f5c:	fcf40ca3          	sb	a5,-39(s0)
D:\Propel_Study\I2C_SPI_Programming_singlecore\Workspace\I2C_SPI_GPIO\Debug/../src/bsp/driver/i2c_controller/i2c_master.c:382
	uint8_t data_count = 0;
     f60:	fe0407a3          	sb	zero,-17(s0)
D:\Propel_Study\I2C_SPI_Programming_singlecore\Workspace\I2C_SPI_GPIO\Debug/../src/bsp/driver/i2c_controller/i2c_master.c:383
	uint8_t i2c_status = 0;
     f64:	fe040723          	sb	zero,-18(s0)
D:\Propel_Study\I2C_SPI_Programming_singlecore\Workspace\I2C_SPI_GPIO\Debug/../src/bsp/driver/i2c_controller/i2c_master.c:384
	uint8_t status = 0;
     f68:	fe0406a3          	sb	zero,-19(s0)
D:\Propel_Study\I2C_SPI_Programming_singlecore\Workspace\I2C_SPI_GPIO\Debug/../src/bsp/driver/i2c_controller/i2c_master.c:385
	uint8_t i2c_int2 = 0;
     f6c:	fe040623          	sb	zero,-20(s0)
D:\Propel_Study\I2C_SPI_Programming_singlecore\Workspace\I2C_SPI_GPIO\Debug/../src/bsp/driver/i2c_controller/i2c_master.c:386
	uint8_t fifo_status = 0;
     f70:	fe0405a3          	sb	zero,-21(s0)
D:\Propel_Study\I2C_SPI_Programming_singlecore\Workspace\I2C_SPI_GPIO\Debug/../src/bsp/driver/i2c_controller/i2c_master.c:388

	if (NULL == this_i2cm || NULL == data_buffer )
     f74:	fdc42783          	lw	a5,-36(s0)
     f78:	c781                	beqz	a5,f80 <i2c_master_write+0x3e>
D:\Propel_Study\I2C_SPI_Programming_singlecore\Workspace\I2C_SPI_GPIO\Debug/../src/bsp/driver/i2c_controller/i2c_master.c:388 (discriminator 1)
     f7a:	fd442783          	lw	a5,-44(s0)
     f7e:	e399                	bnez	a5,f84 <i2c_master_write+0x42>
D:\Propel_Study\I2C_SPI_Programming_singlecore\Workspace\I2C_SPI_GPIO\Debug/../src/bsp/driver/i2c_controller/i2c_master.c:390
	{
		return 1;
     f80:	4785                	li	a5,1
     f82:	ac35                	j	11be <i2c_master_write+0x27c>
D:\Propel_Study\I2C_SPI_Programming_singlecore\Workspace\I2C_SPI_GPIO\Debug/../src/bsp/driver/i2c_controller/i2c_master.c:394
	}

	// config the register before issue the transaction
	reg_8b_write(this_i2cm->base_address | REG_BYTE_CNT, data_size);
     f84:	fdc42783          	lw	a5,-36(s0)
     f88:	43dc                	lw	a5,4(a5)
     f8a:	0107e793          	ori	a5,a5,16
     f8e:	fd944703          	lbu	a4,-39(s0)
     f92:	85ba                	mv	a1,a4
     f94:	853e                	mv	a0,a5
     f96:	97bff0ef          	jal	ra,910 <reg_8b_write>
D:\Propel_Study\I2C_SPI_Programming_singlecore\Workspace\I2C_SPI_GPIO\Debug/../src/bsp/driver/i2c_controller/i2c_master.c:396

	reg_8b_write(this_i2cm->base_address | REG_SLAVE_ADDR_LOW,
     f9a:	fdc42783          	lw	a5,-36(s0)
     f9e:	43dc                	lw	a5,4(a5)
     fa0:	0047e713          	ori	a4,a5,4
D:\Propel_Study\I2C_SPI_Programming_singlecore\Workspace\I2C_SPI_GPIO\Debug/../src/bsp/driver/i2c_controller/i2c_master.c:397
		      address & 0x7F);
     fa4:	fda45783          	lhu	a5,-38(s0)
     fa8:	0ff7f793          	zext.b	a5,a5
D:\Propel_Study\I2C_SPI_Programming_singlecore\Workspace\I2C_SPI_GPIO\Debug/../src/bsp/driver/i2c_controller/i2c_master.c:396
	reg_8b_write(this_i2cm->base_address | REG_SLAVE_ADDR_LOW,
     fac:	07f7f793          	andi	a5,a5,127
     fb0:	0ff7f793          	zext.b	a5,a5
     fb4:	85be                	mv	a1,a5
     fb6:	853a                	mv	a0,a4
     fb8:	959ff0ef          	jal	ra,910 <reg_8b_write>
D:\Propel_Study\I2C_SPI_Programming_singlecore\Workspace\I2C_SPI_GPIO\Debug/../src/bsp/driver/i2c_controller/i2c_master.c:399

    if(this_i2cm->addr_mode==I2CM_ADDR_10BIT_MODE)  // 10-bit mode
     fbc:	fdc42783          	lw	a5,-36(s0)
     fc0:	0097c703          	lbu	a4,9(a5)
     fc4:	47a9                	li	a5,10
     fc6:	02f71563          	bne	a4,a5,ff0 <i2c_master_write+0xae>
D:\Propel_Study\I2C_SPI_Programming_singlecore\Workspace\I2C_SPI_GPIO\Debug/../src/bsp/driver/i2c_controller/i2c_master.c:401
    {
        reg_8b_write(this_i2cm->base_address | REG_SLAVE_ADDR_HIGH,
     fca:	fdc42783          	lw	a5,-36(s0)
     fce:	43dc                	lw	a5,4(a5)
     fd0:	0087e713          	ori	a4,a5,8
D:\Propel_Study\I2C_SPI_Programming_singlecore\Workspace\I2C_SPI_GPIO\Debug/../src/bsp/driver/i2c_controller/i2c_master.c:402
	              (address>>8) & 0x03);
     fd4:	fda45783          	lhu	a5,-38(s0)
     fd8:	83a1                	srli	a5,a5,0x8
     fda:	07c2                	slli	a5,a5,0x10
     fdc:	83c1                	srli	a5,a5,0x10
     fde:	0ff7f793          	zext.b	a5,a5
D:\Propel_Study\I2C_SPI_Programming_singlecore\Workspace\I2C_SPI_GPIO\Debug/../src/bsp/driver/i2c_controller/i2c_master.c:401
        reg_8b_write(this_i2cm->base_address | REG_SLAVE_ADDR_HIGH,
     fe2:	8b8d                	andi	a5,a5,3
     fe4:	0ff7f793          	zext.b	a5,a5
     fe8:	85be                	mv	a1,a5
     fea:	853a                	mv	a0,a4
     fec:	925ff0ef          	jal	ra,910 <reg_8b_write>
D:\Propel_Study\I2C_SPI_Programming_singlecore\Workspace\I2C_SPI_GPIO\Debug/../src/bsp/driver/i2c_controller/i2c_master.c:406
    }

    // set to write mode
    reg_8b_modify(this_i2cm->base_address | REG_MODE, I2C_TXRX_MODE, 0);
     ff0:	fdc42783          	lw	a5,-36(s0)
     ff4:	43dc                	lw	a5,4(a5)
     ff6:	0147e793          	ori	a5,a5,20
     ffa:	4601                	li	a2,0
     ffc:	45a1                	li	a1,8
     ffe:	853e                	mv	a0,a5
    1000:	93fff0ef          	jal	ra,93e <reg_8b_modify>
D:\Propel_Study\I2C_SPI_Programming_singlecore\Workspace\I2C_SPI_GPIO\Debug/../src/bsp/driver/i2c_controller/i2c_master.c:409

    // clear status bits
    reg_8b_read(this_i2cm->base_address | REG_INT_STATUS1, &status);
    1004:	fdc42783          	lw	a5,-36(s0)
    1008:	43dc                	lw	a5,4(a5)
    100a:	01c7e793          	ori	a5,a5,28
    100e:	fed40713          	addi	a4,s0,-19
    1012:	85ba                	mv	a1,a4
    1014:	853e                	mv	a0,a5
    1016:	99dff0ef          	jal	ra,9b2 <reg_8b_read>
D:\Propel_Study\I2C_SPI_Programming_singlecore\Workspace\I2C_SPI_GPIO\Debug/../src/bsp/driver/i2c_controller/i2c_master.c:410
    reg_8b_write(this_i2cm->base_address | REG_INT_STATUS1, status);
    101a:	fdc42783          	lw	a5,-36(s0)
    101e:	43dc                	lw	a5,4(a5)
    1020:	01c7e793          	ori	a5,a5,28
    1024:	fed44703          	lbu	a4,-19(s0)
    1028:	85ba                	mv	a1,a4
    102a:	853e                	mv	a0,a5
    102c:	8e5ff0ef          	jal	ra,910 <reg_8b_write>
D:\Propel_Study\I2C_SPI_Programming_singlecore\Workspace\I2C_SPI_GPIO\Debug/../src/bsp/driver/i2c_controller/i2c_master.c:411
    reg_8b_read(this_i2cm->base_address | REG_INT_STATUS2, &i2c_int2);
    1030:	fdc42783          	lw	a5,-36(s0)
    1034:	43dc                	lw	a5,4(a5)
    1036:	0287e793          	ori	a5,a5,40
    103a:	fec40713          	addi	a4,s0,-20
    103e:	85ba                	mv	a1,a4
    1040:	853e                	mv	a0,a5
    1042:	971ff0ef          	jal	ra,9b2 <reg_8b_read>
D:\Propel_Study\I2C_SPI_Programming_singlecore\Workspace\I2C_SPI_GPIO\Debug/../src/bsp/driver/i2c_controller/i2c_master.c:412
    reg_8b_write(this_i2cm->base_address | REG_INT_STATUS2, i2c_int2);
    1046:	fdc42783          	lw	a5,-36(s0)
    104a:	43dc                	lw	a5,4(a5)
    104c:	0287e793          	ori	a5,a5,40
    1050:	fec44703          	lbu	a4,-20(s0)
    1054:	85ba                	mv	a1,a4
    1056:	853e                	mv	a0,a5
    1058:	8b9ff0ef          	jal	ra,910 <reg_8b_write>
D:\Propel_Study\I2C_SPI_Programming_singlecore\Workspace\I2C_SPI_GPIO\Debug/../src/bsp/driver/i2c_controller/i2c_master.c:414

    while (data_count < data_size)
    105c:	a0b1                	j	10a8 <i2c_master_write+0x166>
D:\Propel_Study\I2C_SPI_Programming_singlecore\Workspace\I2C_SPI_GPIO\Debug/../src/bsp/driver/i2c_controller/i2c_master.c:417
    {
    	// check tx fifo level,
        reg_8b_read(this_i2cm->base_address | REG_INT_STATUS1, &status);
    105e:	fdc42783          	lw	a5,-36(s0)
    1062:	43dc                	lw	a5,4(a5)
    1064:	01c7e793          	ori	a5,a5,28
    1068:	fed40713          	addi	a4,s0,-19
    106c:	85ba                	mv	a1,a4
    106e:	853e                	mv	a0,a5
    1070:	943ff0ef          	jal	ra,9b2 <reg_8b_read>
D:\Propel_Study\I2C_SPI_Programming_singlecore\Workspace\I2C_SPI_GPIO\Debug/../src/bsp/driver/i2c_controller/i2c_master.c:420

		// if tx fifo is full, stop loading fifo for now, resume in interrupt or polling loop
		if ( (status & TX_FIFO_FULL_MASK) != 0 ) {
    1074:	fed44783          	lbu	a5,-19(s0)
    1078:	0207f793          	andi	a5,a5,32
    107c:	ef8d                	bnez	a5,10b6 <i2c_master_write+0x174>
D:\Propel_Study\I2C_SPI_Programming_singlecore\Workspace\I2C_SPI_GPIO\Debug/../src/bsp/driver/i2c_controller/i2c_master.c:424
			break;
		}

        reg_8b_write(this_i2cm->base_address | REG_DATA_BUFFER, *data_buffer);  // push the data into tx buffer
    107e:	fdc42783          	lw	a5,-36(s0)
    1082:	43d8                	lw	a4,4(a5)
    1084:	fd442783          	lw	a5,-44(s0)
    1088:	0007c783          	lbu	a5,0(a5)
    108c:	85be                	mv	a1,a5
    108e:	853a                	mv	a0,a4
    1090:	881ff0ef          	jal	ra,910 <reg_8b_write>
D:\Propel_Study\I2C_SPI_Programming_singlecore\Workspace\I2C_SPI_GPIO\Debug/../src/bsp/driver/i2c_controller/i2c_master.c:427

        // update the counter and data buffer pointer
        data_buffer++;
    1094:	fd442783          	lw	a5,-44(s0)
    1098:	0785                	addi	a5,a5,1
    109a:	fcf42a23          	sw	a5,-44(s0)
D:\Propel_Study\I2C_SPI_Programming_singlecore\Workspace\I2C_SPI_GPIO\Debug/../src/bsp/driver/i2c_controller/i2c_master.c:428
        data_count++;
    109e:	fef44783          	lbu	a5,-17(s0)
    10a2:	0785                	addi	a5,a5,1
    10a4:	fef407a3          	sb	a5,-17(s0)
D:\Propel_Study\I2C_SPI_Programming_singlecore\Workspace\I2C_SPI_GPIO\Debug/../src/bsp/driver/i2c_controller/i2c_master.c:414
    while (data_count < data_size)
    10a8:	fef44703          	lbu	a4,-17(s0)
    10ac:	fd944783          	lbu	a5,-39(s0)
    10b0:	faf767e3          	bltu	a4,a5,105e <i2c_master_write+0x11c>
    10b4:	a011                	j	10b8 <i2c_master_write+0x176>
D:\Propel_Study\I2C_SPI_Programming_singlecore\Workspace\I2C_SPI_GPIO\Debug/../src/bsp/driver/i2c_controller/i2c_master.c:421
			break;
    10b6:	0001                	nop
D:\Propel_Study\I2C_SPI_Programming_singlecore\Workspace\I2C_SPI_GPIO\Debug/../src/bsp/driver/i2c_controller/i2c_master.c:431
    }

    if(this_i2cm->state == I2CM_STATE_IDLE)
    10b8:	fdc42783          	lw	a5,-36(s0)
    10bc:	0087c783          	lbu	a5,8(a5)
    10c0:	e385                	bnez	a5,10e0 <i2c_master_write+0x19e>
D:\Propel_Study\I2C_SPI_Programming_singlecore\Workspace\I2C_SPI_GPIO\Debug/../src/bsp/driver/i2c_controller/i2c_master.c:434
    {
    	// start the transaction
    	this_i2cm->state = I2CM_STATE_WRITE;
    10c2:	fdc42783          	lw	a5,-36(s0)
    10c6:	4709                	li	a4,2
    10c8:	00e78423          	sb	a4,8(a5)
D:\Propel_Study\I2C_SPI_Programming_singlecore\Workspace\I2C_SPI_GPIO\Debug/../src/bsp/driver/i2c_controller/i2c_master.c:435
    	reg_8b_write(this_i2cm->base_address | REG_CONFIG, I2C_START);
    10cc:	fdc42783          	lw	a5,-36(s0)
    10d0:	43dc                	lw	a5,4(a5)
    10d2:	00c7e793          	ori	a5,a5,12
    10d6:	4585                	li	a1,1
    10d8:	853e                	mv	a0,a5
    10da:	837ff0ef          	jal	ra,910 <reg_8b_write>
    10de:	a019                	j	10e4 <i2c_master_write+0x1a2>
D:\Propel_Study\I2C_SPI_Programming_singlecore\Workspace\I2C_SPI_GPIO\Debug/../src/bsp/driver/i2c_controller/i2c_master.c:439
    }
    else
    {
    	return 1;
    10e0:	4785                	li	a5,1
    10e2:	a8f1                	j	11be <i2c_master_write+0x27c>
D:\Propel_Study\I2C_SPI_Programming_singlecore\Workspace\I2C_SPI_GPIO\Debug/../src/bsp/driver/i2c_controller/i2c_master.c:447
#if !INT_MODE
    // check the status until transfer done
    while(1)
    {
    	// cycle completes when all bytes are transmitted or a NACK is received or an ERROR is detected
    	reg_8b_read(this_i2cm->base_address | REG_INT_STATUS1, &status);
    10e4:	fdc42783          	lw	a5,-36(s0)
    10e8:	43dc                	lw	a5,4(a5)
    10ea:	01c7e793          	ori	a5,a5,28
    10ee:	fed40713          	addi	a4,s0,-19
    10f2:	85ba                	mv	a1,a4
    10f4:	853e                	mv	a0,a5
    10f6:	8bdff0ef          	jal	ra,9b2 <reg_8b_read>
D:\Propel_Study\I2C_SPI_Programming_singlecore\Workspace\I2C_SPI_GPIO\Debug/../src/bsp/driver/i2c_controller/i2c_master.c:448
        if (status & I2C_TRANSFER_COMP_MASK)
    10fa:	fed44783          	lbu	a5,-19(s0)
    10fe:	07e2                	slli	a5,a5,0x18
    1100:	87e1                	srai	a5,a5,0x18
    1102:	0007d763          	bgez	a5,1110 <i2c_master_write+0x1ce>
D:\Propel_Study\I2C_SPI_Programming_singlecore\Workspace\I2C_SPI_GPIO\Debug/../src/bsp/driver/i2c_controller/i2c_master.c:450
        {
        	this_i2cm->state = I2CM_STATE_IDLE;
    1106:	fdc42783          	lw	a5,-36(s0)
    110a:	00078423          	sb	zero,8(a5)
D:\Propel_Study\I2C_SPI_Programming_singlecore\Workspace\I2C_SPI_GPIO\Debug/../src/bsp/driver/i2c_controller/i2c_master.c:451
            break;
    110e:	a075                	j	11ba <i2c_master_write+0x278>
D:\Propel_Study\I2C_SPI_Programming_singlecore\Workspace\I2C_SPI_GPIO\Debug/../src/bsp/driver/i2c_controller/i2c_master.c:456
        }


    	// still have bytes to send
		if (data_count < data_size)
    1110:	fef44703          	lbu	a4,-17(s0)
    1114:	fd944783          	lbu	a5,-39(s0)
    1118:	04f77663          	bgeu	a4,a5,1164 <i2c_master_write+0x222>
D:\Propel_Study\I2C_SPI_Programming_singlecore\Workspace\I2C_SPI_GPIO\Debug/../src/bsp/driver/i2c_controller/i2c_master.c:459
		{
			// load any additional bytes into tx fifo when it becomes almost empty
			reg_8b_read(this_i2cm->base_address | FIFO_STATUS_REG, &fifo_status);
    111c:	fdc42783          	lw	a5,-36(s0)
    1120:	43dc                	lw	a5,4(a5)
    1122:	0347e793          	ori	a5,a5,52
    1126:	feb40713          	addi	a4,s0,-21
    112a:	85ba                	mv	a1,a4
    112c:	853e                	mv	a0,a5
    112e:	885ff0ef          	jal	ra,9b2 <reg_8b_read>
D:\Propel_Study\I2C_SPI_Programming_singlecore\Workspace\I2C_SPI_GPIO\Debug/../src/bsp/driver/i2c_controller/i2c_master.c:460
			if (fifo_status & TX_FIFO_AEMPTY_MASK)	// if tx fifo is almost empty
    1132:	feb44783          	lbu	a5,-21(s0)
    1136:	8bc1                	andi	a5,a5,16
    1138:	c795                	beqz	a5,1164 <i2c_master_write+0x222>
D:\Propel_Study\I2C_SPI_Programming_singlecore\Workspace\I2C_SPI_GPIO\Debug/../src/bsp/driver/i2c_controller/i2c_master.c:462
			{
				reg_8b_write(this_i2cm->base_address | REG_DATA_BUFFER, *data_buffer);  // push the data into tx buffer
    113a:	fdc42783          	lw	a5,-36(s0)
    113e:	43d8                	lw	a4,4(a5)
    1140:	fd442783          	lw	a5,-44(s0)
    1144:	0007c783          	lbu	a5,0(a5)
    1148:	85be                	mv	a1,a5
    114a:	853a                	mv	a0,a4
    114c:	fc4ff0ef          	jal	ra,910 <reg_8b_write>
D:\Propel_Study\I2C_SPI_Programming_singlecore\Workspace\I2C_SPI_GPIO\Debug/../src/bsp/driver/i2c_controller/i2c_master.c:465

				// update the counter and data buffer pointer
				data_buffer++;
    1150:	fd442783          	lw	a5,-44(s0)
    1154:	0785                	addi	a5,a5,1
    1156:	fcf42a23          	sw	a5,-44(s0)
D:\Propel_Study\I2C_SPI_Programming_singlecore\Workspace\I2C_SPI_GPIO\Debug/../src/bsp/driver/i2c_controller/i2c_master.c:466
				data_count++;
    115a:	fef44783          	lbu	a5,-17(s0)
    115e:	0785                	addi	a5,a5,1
    1160:	fef407a3          	sb	a5,-17(s0)
D:\Propel_Study\I2C_SPI_Programming_singlecore\Workspace\I2C_SPI_GPIO\Debug/../src/bsp/driver/i2c_controller/i2c_master.c:471
			}
        }

        // check for I2C errors including NACK
    	reg_8b_read(this_i2cm->base_address | REG_INT_STATUS2, &i2c_int2);
    1164:	fdc42783          	lw	a5,-36(s0)
    1168:	43dc                	lw	a5,4(a5)
    116a:	0287e793          	ori	a5,a5,40
    116e:	fec40713          	addi	a4,s0,-20
    1172:	85ba                	mv	a1,a4
    1174:	853e                	mv	a0,a5
    1176:	83dff0ef          	jal	ra,9b2 <reg_8b_read>
D:\Propel_Study\I2C_SPI_Programming_singlecore\Workspace\I2C_SPI_GPIO\Debug/../src/bsp/driver/i2c_controller/i2c_master.c:472
        if (i2c_int2 & I2C_ERR)
    117a:	fec44783          	lbu	a5,-20(s0)
    117e:	8bbd                	andi	a5,a5,15
    1180:	d3b5                	beqz	a5,10e4 <i2c_master_write+0x1a2>
D:\Propel_Study\I2C_SPI_Programming_singlecore\Workspace\I2C_SPI_GPIO\Debug/../src/bsp/driver/i2c_controller/i2c_master.c:475
        {
			// reset the i2c master
			reg_8b_modify(this_i2cm->base_address | REG_CONFIG, I2C_MASTER_RESET, I2C_MASTER_RESET);
    1182:	fdc42783          	lw	a5,-36(s0)
    1186:	43dc                	lw	a5,4(a5)
    1188:	00c7e793          	ori	a5,a5,12
    118c:	4611                	li	a2,4
    118e:	4591                	li	a1,4
    1190:	853e                	mv	a0,a5
    1192:	facff0ef          	jal	ra,93e <reg_8b_modify>
D:\Propel_Study\I2C_SPI_Programming_singlecore\Workspace\I2C_SPI_GPIO\Debug/../src/bsp/driver/i2c_controller/i2c_master.c:476
			reg_8b_modify(this_i2cm->base_address | REG_CONFIG, I2C_MASTER_RESET, ~I2C_MASTER_RESET);
    1196:	fdc42783          	lw	a5,-36(s0)
    119a:	43dc                	lw	a5,4(a5)
    119c:	00c7e793          	ori	a5,a5,12
    11a0:	0fb00613          	li	a2,251
    11a4:	4591                	li	a1,4
    11a6:	853e                	mv	a0,a5
    11a8:	f96ff0ef          	jal	ra,93e <reg_8b_modify>
D:\Propel_Study\I2C_SPI_Programming_singlecore\Workspace\I2C_SPI_GPIO\Debug/../src/bsp/driver/i2c_controller/i2c_master.c:478

        	i2c_status = 1;
    11ac:	4785                	li	a5,1
    11ae:	fef40723          	sb	a5,-18(s0)
D:\Propel_Study\I2C_SPI_Programming_singlecore\Workspace\I2C_SPI_GPIO\Debug/../src/bsp/driver/i2c_controller/i2c_master.c:479
        	this_i2cm->state = I2CM_STATE_IDLE;
    11b2:	fdc42783          	lw	a5,-36(s0)
    11b6:	00078423          	sb	zero,8(a5)
D:\Propel_Study\I2C_SPI_Programming_singlecore\Workspace\I2C_SPI_GPIO\Debug/../src/bsp/driver/i2c_controller/i2c_master.c:484
            break;
        }
    }
#endif
	return i2c_status;
    11ba:	fee44783          	lbu	a5,-18(s0)
D:\Propel_Study\I2C_SPI_Programming_singlecore\Workspace\I2C_SPI_GPIO\Debug/../src/bsp/driver/i2c_controller/i2c_master.c:485 (discriminator 1)
}
    11be:	853e                	mv	a0,a5
    11c0:	50b2                	lw	ra,44(sp)
    11c2:	5422                	lw	s0,40(sp)
    11c4:	6145                	addi	sp,sp,48
    11c6:	8082                	ret

000011c8 <gpio_init>:
gpio_init():
D:\Propel_Study\I2C_SPI_Programming_singlecore\Workspace\I2C_SPI_GPIO\Debug/../src/bsp/driver/gpio/gpio.c:60
#include <stddef.h>

unsigned char gpio_init(struct gpio_instance *this_gpio,
		uint32_t base_addr,
		uint32_t lines_num, uint32_t gpio_dirs)
{
    11c8:	7179                	addi	sp,sp,-48
    11ca:	d606                	sw	ra,44(sp)
    11cc:	d422                	sw	s0,40(sp)
    11ce:	1800                	addi	s0,sp,48
    11d0:	fca42e23          	sw	a0,-36(s0)
    11d4:	fcb42c23          	sw	a1,-40(s0)
    11d8:	fcc42a23          	sw	a2,-44(s0)
    11dc:	fcd42823          	sw	a3,-48(s0)
D:\Propel_Study\I2C_SPI_Programming_singlecore\Workspace\I2C_SPI_GPIO\Debug/../src/bsp/driver/gpio/gpio.c:61
	unsigned int index = 0;
    11e0:	fe042623          	sw	zero,-20(s0)
D:\Propel_Study\I2C_SPI_Programming_singlecore\Workspace\I2C_SPI_GPIO\Debug/../src/bsp/driver/gpio/gpio.c:62
	if (NULL == this_gpio) {
    11e4:	fdc42783          	lw	a5,-36(s0)
    11e8:	e399                	bnez	a5,11ee <gpio_init+0x26>
D:\Propel_Study\I2C_SPI_Programming_singlecore\Workspace\I2C_SPI_GPIO\Debug/../src/bsp/driver/gpio/gpio.c:63
		return 1;
    11ea:	4785                	li	a5,1
    11ec:	a05d                	j	1292 <gpio_init+0xca>
D:\Propel_Study\I2C_SPI_Programming_singlecore\Workspace\I2C_SPI_GPIO\Debug/../src/bsp/driver/gpio/gpio.c:65
	}
	this_gpio->base_address = base_addr;
    11ee:	fdc42783          	lw	a5,-36(s0)
    11f2:	fd842703          	lw	a4,-40(s0)
    11f6:	c3d8                	sw	a4,4(a5)
D:\Propel_Study\I2C_SPI_Programming_singlecore\Workspace\I2C_SPI_GPIO\Debug/../src/bsp/driver/gpio/gpio.c:67

	for (index = 0; index < lines_num; index++) {
    11f8:	fe042623          	sw	zero,-20(s0)
    11fc:	a061                	j	1284 <gpio_init+0xbc>
D:\Propel_Study\I2C_SPI_Programming_singlecore\Workspace\I2C_SPI_GPIO\Debug/../src/bsp/driver/gpio/gpio.c:68
		this_gpio->gpio_config[index].pin = 0x01 << index;
    11fe:	fec42783          	lw	a5,-20(s0)
    1202:	4705                	li	a4,1
    1204:	00f717b3          	sll	a5,a4,a5
    1208:	86be                	mv	a3,a5
    120a:	fdc42703          	lw	a4,-36(s0)
    120e:	fec42783          	lw	a5,-20(s0)
    1212:	078a                	slli	a5,a5,0x2
    1214:	97ba                	add	a5,a5,a4
    1216:	c794                	sw	a3,8(a5)
D:\Propel_Study\I2C_SPI_Programming_singlecore\Workspace\I2C_SPI_GPIO\Debug/../src/bsp/driver/gpio/gpio.c:70

		if (gpio_dirs & (0x01 << index)) {
    1218:	fec42783          	lw	a5,-20(s0)
    121c:	4705                	li	a4,1
    121e:	00f717b3          	sll	a5,a4,a5
    1222:	873e                	mv	a4,a5
    1224:	fd042783          	lw	a5,-48(s0)
    1228:	8ff9                	and	a5,a5,a4
    122a:	c79d                	beqz	a5,1258 <gpio_init+0x90>
D:\Propel_Study\I2C_SPI_Programming_singlecore\Workspace\I2C_SPI_GPIO\Debug/../src/bsp/driver/gpio/gpio.c:71
			reg_32b_modify(this_gpio->base_address | GPIO_DIRECTION,
    122c:	fdc42783          	lw	a5,-36(s0)
    1230:	43dc                	lw	a5,4(a5)
    1232:	0107e693          	ori	a3,a5,16
D:\Propel_Study\I2C_SPI_Programming_singlecore\Workspace\I2C_SPI_GPIO\Debug/../src/bsp/driver/gpio/gpio.c:72
					this_gpio->gpio_config[index].pin, (GPIO_OUTPUT << index));
    1236:	fdc42703          	lw	a4,-36(s0)
    123a:	fec42783          	lw	a5,-20(s0)
    123e:	078a                	slli	a5,a5,0x2
    1240:	97ba                	add	a5,a5,a4
    1242:	478c                	lw	a1,8(a5)
    1244:	fec42783          	lw	a5,-20(s0)
    1248:	4705                	li	a4,1
    124a:	00f717b3          	sll	a5,a4,a5
D:\Propel_Study\I2C_SPI_Programming_singlecore\Workspace\I2C_SPI_GPIO\Debug/../src/bsp/driver/gpio/gpio.c:71
			reg_32b_modify(this_gpio->base_address | GPIO_DIRECTION,
    124e:	863e                	mv	a2,a5
    1250:	8536                	mv	a0,a3
    1252:	e78ff0ef          	jal	ra,8ca <reg_32b_modify>
    1256:	a015                	j	127a <gpio_init+0xb2>
D:\Propel_Study\I2C_SPI_Programming_singlecore\Workspace\I2C_SPI_GPIO\Debug/../src/bsp/driver/gpio/gpio.c:77
#ifdef _DIRECTION_INTERNAL_MEMORY_USE_
			this_gpio->gpio_config[index].direction = GPIO_OUTPUT;
#endif
		} else {
			reg_32b_modify(this_gpio->base_address | GPIO_DIRECTION,
    1258:	fdc42783          	lw	a5,-36(s0)
    125c:	43dc                	lw	a5,4(a5)
    125e:	0107e693          	ori	a3,a5,16
D:\Propel_Study\I2C_SPI_Programming_singlecore\Workspace\I2C_SPI_GPIO\Debug/../src/bsp/driver/gpio/gpio.c:78
					this_gpio->gpio_config[index].pin, (GPIO_INPUT << index));
    1262:	fdc42703          	lw	a4,-36(s0)
    1266:	fec42783          	lw	a5,-20(s0)
    126a:	078a                	slli	a5,a5,0x2
    126c:	97ba                	add	a5,a5,a4
    126e:	479c                	lw	a5,8(a5)
D:\Propel_Study\I2C_SPI_Programming_singlecore\Workspace\I2C_SPI_GPIO\Debug/../src/bsp/driver/gpio/gpio.c:77
			reg_32b_modify(this_gpio->base_address | GPIO_DIRECTION,
    1270:	4601                	li	a2,0
    1272:	85be                	mv	a1,a5
    1274:	8536                	mv	a0,a3
    1276:	e54ff0ef          	jal	ra,8ca <reg_32b_modify>
D:\Propel_Study\I2C_SPI_Programming_singlecore\Workspace\I2C_SPI_GPIO\Debug/../src/bsp/driver/gpio/gpio.c:67 (discriminator 2)
	for (index = 0; index < lines_num; index++) {
    127a:	fec42783          	lw	a5,-20(s0)
    127e:	0785                	addi	a5,a5,1
    1280:	fef42623          	sw	a5,-20(s0)
D:\Propel_Study\I2C_SPI_Programming_singlecore\Workspace\I2C_SPI_GPIO\Debug/../src/bsp/driver/gpio/gpio.c:67 (discriminator 1)
    1284:	fec42703          	lw	a4,-20(s0)
    1288:	fd442783          	lw	a5,-44(s0)
    128c:	f6f769e3          	bltu	a4,a5,11fe <gpio_init+0x36>
D:\Propel_Study\I2C_SPI_Programming_singlecore\Workspace\I2C_SPI_GPIO\Debug/../src/bsp/driver/gpio/gpio.c:84
#ifdef _DIRECTION_INTERNAL_MEMORY_USE_
			this_gpio->gpio_config[index].direction = GPIO_INPUT;
#endif
		}
	}
	return 0;
    1290:	4781                	li	a5,0
D:\Propel_Study\I2C_SPI_Programming_singlecore\Workspace\I2C_SPI_GPIO\Debug/../src/bsp/driver/gpio/gpio.c:85
}
    1292:	853e                	mv	a0,a5
    1294:	50b2                	lw	ra,44(sp)
    1296:	5422                	lw	s0,40(sp)
    1298:	6145                	addi	sp,sp,48
    129a:	8082                	ret

0000129c <gpio_output_write>:
gpio_output_write():
D:\Propel_Study\I2C_SPI_Programming_singlecore\Workspace\I2C_SPI_GPIO\Debug/../src/bsp/driver/gpio/gpio.c:104
	return 0;
}

unsigned char gpio_output_write(struct gpio_instance *this_gpio,
		uint32_t index, uint32_t value)
{
    129c:	1101                	addi	sp,sp,-32
    129e:	ce06                	sw	ra,28(sp)
    12a0:	cc22                	sw	s0,24(sp)
    12a2:	1000                	addi	s0,sp,32
    12a4:	fea42623          	sw	a0,-20(s0)
    12a8:	feb42423          	sw	a1,-24(s0)
    12ac:	fec42223          	sw	a2,-28(s0)
D:\Propel_Study\I2C_SPI_Programming_singlecore\Workspace\I2C_SPI_GPIO\Debug/../src/bsp/driver/gpio/gpio.c:105
	if (NULL == this_gpio) {
    12b0:	fec42783          	lw	a5,-20(s0)
    12b4:	e399                	bnez	a5,12ba <gpio_output_write+0x1e>
D:\Propel_Study\I2C_SPI_Programming_singlecore\Workspace\I2C_SPI_GPIO\Debug/../src/bsp/driver/gpio/gpio.c:106
		return 1;
    12b6:	4785                	li	a5,1
    12b8:	a025                	j	12e0 <gpio_output_write+0x44>
D:\Propel_Study\I2C_SPI_Programming_singlecore\Workspace\I2C_SPI_GPIO\Debug/../src/bsp/driver/gpio/gpio.c:109
	}

	reg_32b_modify(this_gpio->base_address | GPIO_WR_DATA,
    12ba:	fec42783          	lw	a5,-20(s0)
    12be:	43dc                	lw	a5,4(a5)
    12c0:	0047e693          	ori	a3,a5,4
D:\Propel_Study\I2C_SPI_Programming_singlecore\Workspace\I2C_SPI_GPIO\Debug/../src/bsp/driver/gpio/gpio.c:110
			this_gpio->gpio_config[index].pin, value);
    12c4:	fec42703          	lw	a4,-20(s0)
    12c8:	fe842783          	lw	a5,-24(s0)
    12cc:	078a                	slli	a5,a5,0x2
    12ce:	97ba                	add	a5,a5,a4
    12d0:	479c                	lw	a5,8(a5)
D:\Propel_Study\I2C_SPI_Programming_singlecore\Workspace\I2C_SPI_GPIO\Debug/../src/bsp/driver/gpio/gpio.c:109
	reg_32b_modify(this_gpio->base_address | GPIO_WR_DATA,
    12d2:	fe442603          	lw	a2,-28(s0)
    12d6:	85be                	mv	a1,a5
    12d8:	8536                	mv	a0,a3
    12da:	df0ff0ef          	jal	ra,8ca <reg_32b_modify>
D:\Propel_Study\I2C_SPI_Programming_singlecore\Workspace\I2C_SPI_GPIO\Debug/../src/bsp/driver/gpio/gpio.c:112

	return 0;
    12de:	4781                	li	a5,0
D:\Propel_Study\I2C_SPI_Programming_singlecore\Workspace\I2C_SPI_GPIO\Debug/../src/bsp/driver/gpio/gpio.c:113
}
    12e0:	853e                	mv	a0,a5
    12e2:	40f2                	lw	ra,28(sp)
    12e4:	4462                	lw	s0,24(sp)
    12e6:	6105                	addi	sp,sp,32
    12e8:	8082                	ret

000012ea <i2c_isc_disable>:
i2c_isc_disable():
D:\Propel_Study\I2C_SPI_Programming_singlecore\Workspace\I2C_SPI_GPIO\Debug/../src/i2c_program.c:68
	i2c_isc_disable(i2c_master,addr);//Device Exits Programming mode*/

}


void i2c_isc_disable(struct i2cm_instance *i2c_master,uint8_t addr){
    12ea:	7179                	addi	sp,sp,-48
    12ec:	d606                	sw	ra,44(sp)
    12ee:	d422                	sw	s0,40(sp)
    12f0:	1800                	addi	s0,sp,48
    12f2:	fca42e23          	sw	a0,-36(s0)
    12f6:	87ae                	mv	a5,a1
    12f8:	fcf40da3          	sb	a5,-37(s0)
D:\Propel_Study\I2C_SPI_Programming_singlecore\Workspace\I2C_SPI_GPIO\Debug/../src/i2c_program.c:70

	uint8_t isc_disable[4]={0x26,0x00,0x00,0x00};
    12fc:	02600793          	li	a5,38
    1300:	fef42623          	sw	a5,-20(s0)
D:\Propel_Study\I2C_SPI_Programming_singlecore\Workspace\I2C_SPI_GPIO\Debug/../src/i2c_program.c:71
	i2c_master_write(i2c_master, addr, 4, isc_disable);
    1304:	fdb44783          	lbu	a5,-37(s0)
    1308:	07c2                	slli	a5,a5,0x10
    130a:	83c1                	srli	a5,a5,0x10
    130c:	fec40713          	addi	a4,s0,-20
    1310:	86ba                	mv	a3,a4
    1312:	4611                	li	a2,4
    1314:	85be                	mv	a1,a5
    1316:	fdc42503          	lw	a0,-36(s0)
    131a:	3125                	jal	f42 <i2c_master_write>
D:\Propel_Study\I2C_SPI_Programming_singlecore\Workspace\I2C_SPI_GPIO\Debug/../src/i2c_program.c:72
	printf("Device Exits Programming Mode!\n");
    131c:	6789                	lui	a5,0x2
    131e:	71878513          	addi	a0,a5,1816 # 2718 <__iob+0xb0>
    1322:	459000ef          	jal	ra,1f7a <puts>
D:\Propel_Study\I2C_SPI_Programming_singlecore\Workspace\I2C_SPI_GPIO\Debug/../src/i2c_program.c:73
}
    1326:	0001                	nop
    1328:	50b2                	lw	ra,44(sp)
    132a:	5422                	lw	s0,40(sp)
    132c:	6145                	addi	sp,sp,48
    132e:	8082                	ret

00001330 <i2c_program_done>:
i2c_program_done():
D:\Propel_Study\I2C_SPI_Programming_singlecore\Workspace\I2C_SPI_GPIO\Debug/../src/i2c_program.c:74
void i2c_program_done(struct i2cm_instance *i2c_master,uint8_t addr){
    1330:	7179                	addi	sp,sp,-48
    1332:	d606                	sw	ra,44(sp)
    1334:	d422                	sw	s0,40(sp)
    1336:	1800                	addi	s0,sp,48
    1338:	fca42e23          	sw	a0,-36(s0)
    133c:	87ae                	mv	a5,a1
    133e:	fcf40da3          	sb	a5,-37(s0)
D:\Propel_Study\I2C_SPI_Programming_singlecore\Workspace\I2C_SPI_GPIO\Debug/../src/i2c_program.c:75
	uint8_t program_done[4]={0x5E,0x00,0x00,0x00};
    1342:	05e00793          	li	a5,94
    1346:	fef42623          	sw	a5,-20(s0)
D:\Propel_Study\I2C_SPI_Programming_singlecore\Workspace\I2C_SPI_GPIO\Debug/../src/i2c_program.c:76
	i2c_master_write(i2c_master, addr, 4,program_done);
    134a:	fdb44783          	lbu	a5,-37(s0)
    134e:	07c2                	slli	a5,a5,0x10
    1350:	83c1                	srli	a5,a5,0x10
    1352:	fec40713          	addi	a4,s0,-20
    1356:	86ba                	mv	a3,a4
    1358:	4611                	li	a2,4
    135a:	85be                	mv	a1,a5
    135c:	fdc42503          	lw	a0,-36(s0)
    1360:	36cd                	jal	f42 <i2c_master_write>
D:\Propel_Study\I2C_SPI_Programming_singlecore\Workspace\I2C_SPI_GPIO\Debug/../src/i2c_program.c:77
	delayMS(1);
    1362:	4505                	li	a0,1
    1364:	355000ef          	jal	ra,1eb8 <delayMS>
D:\Propel_Study\I2C_SPI_Programming_singlecore\Workspace\I2C_SPI_GPIO\Debug/../src/i2c_program.c:78
	printf("Programmed CFG Internal Done bit!\n");
    1368:	6789                	lui	a5,0x2
    136a:	73878513          	addi	a0,a5,1848 # 2738 <__iob+0xd0>
    136e:	40d000ef          	jal	ra,1f7a <puts>
D:\Propel_Study\I2C_SPI_Programming_singlecore\Workspace\I2C_SPI_GPIO\Debug/../src/i2c_program.c:80

}
    1372:	0001                	nop
    1374:	50b2                	lw	ra,44(sp)
    1376:	5422                	lw	s0,40(sp)
    1378:	6145                	addi	sp,sp,48
    137a:	8082                	ret

0000137c <i2c_lsc_init_address_XO3D>:
i2c_lsc_init_address_XO3D():
D:\Propel_Study\I2C_SPI_Programming_singlecore\Workspace\I2C_SPI_GPIO\Debug/../src/i2c_program.c:141
	printf("Finished Programming internal flash!\n");



}
void i2c_lsc_init_address_XO3D(struct i2cm_instance *i2c_master,uint8_t addr,int CFG){
    137c:	7179                	addi	sp,sp,-48
    137e:	d606                	sw	ra,44(sp)
    1380:	d422                	sw	s0,40(sp)
    1382:	1800                	addi	s0,sp,48
    1384:	fca42e23          	sw	a0,-36(s0)
    1388:	87ae                	mv	a5,a1
    138a:	fcc42a23          	sw	a2,-44(s0)
    138e:	fcf40da3          	sb	a5,-37(s0)
D:\Propel_Study\I2C_SPI_Programming_singlecore\Workspace\I2C_SPI_GPIO\Debug/../src/i2c_program.c:142
	uint8_t lsc_init_address[4]={0x46,0x00,0x01,0x00};
    1392:	67c1                	lui	a5,0x10
    1394:	04678793          	addi	a5,a5,70 # 10046 <_stack_start+0xc9d6>
    1398:	fef42623          	sw	a5,-20(s0)
D:\Propel_Study\I2C_SPI_Programming_singlecore\Workspace\I2C_SPI_GPIO\Debug/../src/i2c_program.c:143
	 if (CFG==0){
    139c:	fd442783          	lw	a5,-44(s0)
    13a0:	eb91                	bnez	a5,13b4 <i2c_lsc_init_address_XO3D+0x38>
D:\Propel_Study\I2C_SPI_Programming_singlecore\Workspace\I2C_SPI_GPIO\Debug/../src/i2c_program.c:144
		 lsc_init_address[2]=0x01;
    13a2:	4785                	li	a5,1
    13a4:	fef40723          	sb	a5,-18(s0)
D:\Propel_Study\I2C_SPI_Programming_singlecore\Workspace\I2C_SPI_GPIO\Debug/../src/i2c_program.c:145
		 printf("Init Address at CFG0\n");
    13a8:	6789                	lui	a5,0x2
    13aa:	7e078513          	addi	a0,a5,2016 # 27e0 <__iob+0x178>
    13ae:	3cd000ef          	jal	ra,1f7a <puts>
    13b2:	a0a1                	j	13fa <i2c_lsc_init_address_XO3D+0x7e>
D:\Propel_Study\I2C_SPI_Programming_singlecore\Workspace\I2C_SPI_GPIO\Debug/../src/i2c_program.c:148
	 }

	 else if (CFG==1){
    13b4:	fd442703          	lw	a4,-44(s0)
    13b8:	4785                	li	a5,1
    13ba:	00f71b63          	bne	a4,a5,13d0 <i2c_lsc_init_address_XO3D+0x54>
D:\Propel_Study\I2C_SPI_Programming_singlecore\Workspace\I2C_SPI_GPIO\Debug/../src/i2c_program.c:149
		 lsc_init_address[2]=0x02;
    13be:	4789                	li	a5,2
    13c0:	fef40723          	sb	a5,-18(s0)
D:\Propel_Study\I2C_SPI_Programming_singlecore\Workspace\I2C_SPI_GPIO\Debug/../src/i2c_program.c:150
		 printf("Init Address at CFG1\n");
    13c4:	6789                	lui	a5,0x2
    13c6:	7f878513          	addi	a0,a5,2040 # 27f8 <__iob+0x190>
    13ca:	3b1000ef          	jal	ra,1f7a <puts>
    13ce:	a035                	j	13fa <i2c_lsc_init_address_XO3D+0x7e>
D:\Propel_Study\I2C_SPI_Programming_singlecore\Workspace\I2C_SPI_GPIO\Debug/../src/i2c_program.c:153
	 }

	 else if (CFG==3){
    13d0:	fd442703          	lw	a4,-44(s0)
    13d4:	478d                	li	a5,3
    13d6:	00f71d63          	bne	a4,a5,13f0 <i2c_lsc_init_address_XO3D+0x74>
D:\Propel_Study\I2C_SPI_Programming_singlecore\Workspace\I2C_SPI_GPIO\Debug/../src/i2c_program.c:154
		 lsc_init_address[2] =0x00;
    13da:	fe040723          	sb	zero,-18(s0)
D:\Propel_Study\I2C_SPI_Programming_singlecore\Workspace\I2C_SPI_GPIO\Debug/../src/i2c_program.c:155
		 lsc_init_address[1] =0x04;
    13de:	4791                	li	a5,4
    13e0:	fef406a3          	sb	a5,-19(s0)
D:\Propel_Study\I2C_SPI_Programming_singlecore\Workspace\I2C_SPI_GPIO\Debug/../src/i2c_program.c:156
		 printf("Init Address at feature row\n");
    13e4:	678d                	lui	a5,0x3
    13e6:	81078513          	addi	a0,a5,-2032 # 2810 <__iob+0x1a8>
    13ea:	391000ef          	jal	ra,1f7a <puts>
    13ee:	a031                	j	13fa <i2c_lsc_init_address_XO3D+0x7e>
D:\Propel_Study\I2C_SPI_Programming_singlecore\Workspace\I2C_SPI_GPIO\Debug/../src/i2c_program.c:162

	 }

	 else{

		 printf("Not a Valid sector\n");
    13f0:	678d                	lui	a5,0x3
    13f2:	82c78513          	addi	a0,a5,-2004 # 282c <__iob+0x1c4>
    13f6:	385000ef          	jal	ra,1f7a <puts>
D:\Propel_Study\I2C_SPI_Programming_singlecore\Workspace\I2C_SPI_GPIO\Debug/../src/i2c_program.c:164
	 }
	i2c_master_write(i2c_master, addr, 4, lsc_init_address);
    13fa:	fdb44783          	lbu	a5,-37(s0)
    13fe:	07c2                	slli	a5,a5,0x10
    1400:	83c1                	srli	a5,a5,0x10
    1402:	fec40713          	addi	a4,s0,-20
    1406:	86ba                	mv	a3,a4
    1408:	4611                	li	a2,4
    140a:	85be                	mv	a1,a5
    140c:	fdc42503          	lw	a0,-36(s0)
    1410:	3e0d                	jal	f42 <i2c_master_write>
D:\Propel_Study\I2C_SPI_Programming_singlecore\Workspace\I2C_SPI_GPIO\Debug/../src/i2c_program.c:165
	delayMS(1);
    1412:	4505                	li	a0,1
    1414:	2a5000ef          	jal	ra,1eb8 <delayMS>
D:\Propel_Study\I2C_SPI_Programming_singlecore\Workspace\I2C_SPI_GPIO\Debug/../src/i2c_program.c:166
}
    1418:	0001                	nop
    141a:	50b2                	lw	ra,44(sp)
    141c:	5422                	lw	s0,40(sp)
    141e:	6145                	addi	sp,sp,48
    1420:	8082                	ret

00001422 <i2c_lsc_init_address_XO2_XO3>:
i2c_lsc_init_address_XO2_XO3():
D:\Propel_Study\I2C_SPI_Programming_singlecore\Workspace\I2C_SPI_GPIO\Debug/../src/i2c_program.c:169


void i2c_lsc_init_address_XO2_XO3(struct i2cm_instance *i2c_master,uint8_t addr){
    1422:	7179                	addi	sp,sp,-48
    1424:	d606                	sw	ra,44(sp)
    1426:	d422                	sw	s0,40(sp)
    1428:	1800                	addi	s0,sp,48
    142a:	fca42e23          	sw	a0,-36(s0)
    142e:	87ae                	mv	a5,a1
    1430:	fcf40da3          	sb	a5,-37(s0)
D:\Propel_Study\I2C_SPI_Programming_singlecore\Workspace\I2C_SPI_GPIO\Debug/../src/i2c_program.c:170
	uint8_t lsc_init_address[4]={0x46,0x04,0x00,0x00};
    1434:	44600793          	li	a5,1094
    1438:	fef42623          	sw	a5,-20(s0)
D:\Propel_Study\I2C_SPI_Programming_singlecore\Workspace\I2C_SPI_GPIO\Debug/../src/i2c_program.c:172

	printf("Init Address at Internal Flash!\n");
    143c:	678d                	lui	a5,0x3
    143e:	84078513          	addi	a0,a5,-1984 # 2840 <__iob+0x1d8>
    1442:	339000ef          	jal	ra,1f7a <puts>
D:\Propel_Study\I2C_SPI_Programming_singlecore\Workspace\I2C_SPI_GPIO\Debug/../src/i2c_program.c:176



	i2c_master_write(i2c_master, addr, 4, lsc_init_address);
    1446:	fdb44783          	lbu	a5,-37(s0)
    144a:	07c2                	slli	a5,a5,0x10
    144c:	83c1                	srli	a5,a5,0x10
    144e:	fec40713          	addi	a4,s0,-20
    1452:	86ba                	mv	a3,a4
    1454:	4611                	li	a2,4
    1456:	85be                	mv	a1,a5
    1458:	fdc42503          	lw	a0,-36(s0)
    145c:	34dd                	jal	f42 <i2c_master_write>
D:\Propel_Study\I2C_SPI_Programming_singlecore\Workspace\I2C_SPI_GPIO\Debug/../src/i2c_program.c:177
	delayMS(1);
    145e:	4505                	li	a0,1
    1460:	259000ef          	jal	ra,1eb8 <delayMS>
D:\Propel_Study\I2C_SPI_Programming_singlecore\Workspace\I2C_SPI_GPIO\Debug/../src/i2c_program.c:178
}
    1464:	0001                	nop
    1466:	50b2                	lw	ra,44(sp)
    1468:	5422                	lw	s0,40(sp)
    146a:	6145                	addi	sp,sp,48
    146c:	8082                	ret

0000146e <i2c_isc_erase_flash_XO3D>:
i2c_isc_erase_flash_XO3D():
D:\Propel_Study\I2C_SPI_Programming_singlecore\Workspace\I2C_SPI_GPIO\Debug/../src/i2c_program.c:183




void i2c_isc_erase_flash_XO3D(struct gpio_instance *gpio,struct i2cm_instance *i2c_master,uint8_t addr, int CFG){
    146e:	7179                	addi	sp,sp,-48
    1470:	d606                	sw	ra,44(sp)
    1472:	d422                	sw	s0,40(sp)
    1474:	1800                	addi	s0,sp,48
    1476:	fca42e23          	sw	a0,-36(s0)
    147a:	fcb42c23          	sw	a1,-40(s0)
    147e:	87b2                	mv	a5,a2
    1480:	fcd42823          	sw	a3,-48(s0)
    1484:	fcf40ba3          	sb	a5,-41(s0)
D:\Propel_Study\I2C_SPI_Programming_singlecore\Workspace\I2C_SPI_GPIO\Debug/../src/i2c_program.c:184
	 printf("Erasing Internal Flash.....\n");
    1488:	678d                	lui	a5,0x3
    148a:	86078513          	addi	a0,a5,-1952 # 2860 <__iob+0x1f8>
    148e:	2ed000ef          	jal	ra,1f7a <puts>
D:\Propel_Study\I2C_SPI_Programming_singlecore\Workspace\I2C_SPI_GPIO\Debug/../src/i2c_program.c:185
	 uint8_t isc_erase_flash[4]={0x0E,0x00,0x01,0x00};
    1492:	67c1                	lui	a5,0x10
    1494:	07b9                	addi	a5,a5,14
    1496:	fef42023          	sw	a5,-32(s0)
D:\Propel_Study\I2C_SPI_Programming_singlecore\Workspace\I2C_SPI_GPIO\Debug/../src/i2c_program.c:186
	 if (CFG==0){
    149a:	fd042783          	lw	a5,-48(s0)
    149e:	e789                	bnez	a5,14a8 <i2c_isc_erase_flash_XO3D+0x3a>
D:\Propel_Study\I2C_SPI_Programming_singlecore\Workspace\I2C_SPI_GPIO\Debug/../src/i2c_program.c:187
		 isc_erase_flash[2]=0x01;
    14a0:	4785                	li	a5,1
    14a2:	fef40123          	sb	a5,-30(s0)
    14a6:	a021                	j	14ae <i2c_isc_erase_flash_XO3D+0x40>
D:\Propel_Study\I2C_SPI_Programming_singlecore\Workspace\I2C_SPI_GPIO\Debug/../src/i2c_program.c:191
	 }

	 else{
		 isc_erase_flash[2]=0x02;
    14a8:	4789                	li	a5,2
    14aa:	fef40123          	sb	a5,-30(s0)
D:\Propel_Study\I2C_SPI_Programming_singlecore\Workspace\I2C_SPI_GPIO\Debug/../src/i2c_program.c:195

	 }

		i2c_master_write(i2c_master, addr, 4, isc_erase_flash);
    14ae:	fd744783          	lbu	a5,-41(s0)
    14b2:	07c2                	slli	a5,a5,0x10
    14b4:	83c1                	srli	a5,a5,0x10
    14b6:	fe040713          	addi	a4,s0,-32
    14ba:	86ba                	mv	a3,a4
    14bc:	4611                	li	a2,4
    14be:	85be                	mv	a1,a5
    14c0:	fd842503          	lw	a0,-40(s0)
    14c4:	3cbd                	jal	f42 <i2c_master_write>
D:\Propel_Study\I2C_SPI_Programming_singlecore\Workspace\I2C_SPI_GPIO\Debug/../src/i2c_program.c:198

		//delayMS(8000);
		int total_ms=10000;
    14c6:	6789                	lui	a5,0x2
    14c8:	71078793          	addi	a5,a5,1808 # 2710 <__iob+0xa8>
    14cc:	fef42223          	sw	a5,-28(s0)
D:\Propel_Study\I2C_SPI_Programming_singlecore\Workspace\I2C_SPI_GPIO\Debug/../src/i2c_program.c:199
		int elapsed=0;
    14d0:	fe042623          	sw	zero,-20(s0)
D:\Propel_Study\I2C_SPI_Programming_singlecore\Workspace\I2C_SPI_GPIO\Debug/../src/i2c_program.c:200
		int led_state=0;
    14d4:	fe042423          	sw	zero,-24(s0)
D:\Propel_Study\I2C_SPI_Programming_singlecore\Workspace\I2C_SPI_GPIO\Debug/../src/i2c_program.c:201
	    while (elapsed < total_ms) {
    14d8:	a815                	j	150c <i2c_isc_erase_flash_XO3D+0x9e>
D:\Propel_Study\I2C_SPI_Programming_singlecore\Workspace\I2C_SPI_GPIO\Debug/../src/i2c_program.c:202
	        gpio_output_write(gpio, 0, led_state);         // Set LED
    14da:	fe842783          	lw	a5,-24(s0)
    14de:	863e                	mv	a2,a5
    14e0:	4581                	li	a1,0
    14e2:	fdc42503          	lw	a0,-36(s0)
    14e6:	3b5d                	jal	129c <gpio_output_write>
D:\Propel_Study\I2C_SPI_Programming_singlecore\Workspace\I2C_SPI_GPIO\Debug/../src/i2c_program.c:203
	        led_state = !led_state;                          // Toggle LED
    14e8:	fe842783          	lw	a5,-24(s0)
    14ec:	0017b793          	seqz	a5,a5
    14f0:	0ff7f793          	zext.b	a5,a5
    14f4:	fef42423          	sw	a5,-24(s0)
D:\Propel_Study\I2C_SPI_Programming_singlecore\Workspace\I2C_SPI_GPIO\Debug/../src/i2c_program.c:204
	        delayMS(500);                      // Wait
    14f8:	1f400513          	li	a0,500
    14fc:	1bd000ef          	jal	ra,1eb8 <delayMS>
D:\Propel_Study\I2C_SPI_Programming_singlecore\Workspace\I2C_SPI_GPIO\Debug/../src/i2c_program.c:205
	        elapsed +=500;                    // Accumulate time
    1500:	fec42783          	lw	a5,-20(s0)
    1504:	1f478793          	addi	a5,a5,500
    1508:	fef42623          	sw	a5,-20(s0)
D:\Propel_Study\I2C_SPI_Programming_singlecore\Workspace\I2C_SPI_GPIO\Debug/../src/i2c_program.c:201
	    while (elapsed < total_ms) {
    150c:	fec42703          	lw	a4,-20(s0)
    1510:	fe442783          	lw	a5,-28(s0)
    1514:	fcf743e3          	blt	a4,a5,14da <i2c_isc_erase_flash_XO3D+0x6c>
D:\Propel_Study\I2C_SPI_Programming_singlecore\Workspace\I2C_SPI_GPIO\Debug/../src/i2c_program.c:207
	    }
	 printf("Internal Flash Erased!\n");
    1518:	678d                	lui	a5,0x3
    151a:	87c78513          	addi	a0,a5,-1924 # 287c <__iob+0x214>
    151e:	25d000ef          	jal	ra,1f7a <puts>
D:\Propel_Study\I2C_SPI_Programming_singlecore\Workspace\I2C_SPI_GPIO\Debug/../src/i2c_program.c:211



}
    1522:	0001                	nop
    1524:	50b2                	lw	ra,44(sp)
    1526:	5422                	lw	s0,40(sp)
    1528:	6145                	addi	sp,sp,48
    152a:	8082                	ret

0000152c <i2c_isc_erase_flash_XO2_XO3>:
i2c_isc_erase_flash_XO2_XO3():
D:\Propel_Study\I2C_SPI_Programming_singlecore\Workspace\I2C_SPI_GPIO\Debug/../src/i2c_program.c:213

void i2c_isc_erase_flash_XO2_XO3(struct gpio_instance *gpio,struct i2cm_instance *i2c_master,uint8_t addr ){
    152c:	7179                	addi	sp,sp,-48
    152e:	d606                	sw	ra,44(sp)
    1530:	d422                	sw	s0,40(sp)
    1532:	1800                	addi	s0,sp,48
    1534:	fca42e23          	sw	a0,-36(s0)
    1538:	fcb42c23          	sw	a1,-40(s0)
    153c:	87b2                	mv	a5,a2
    153e:	fcf40ba3          	sb	a5,-41(s0)
D:\Propel_Study\I2C_SPI_Programming_singlecore\Workspace\I2C_SPI_GPIO\Debug/../src/i2c_program.c:214
	 printf("Erasing Internal Flash.....\n");
    1542:	678d                	lui	a5,0x3
    1544:	86078513          	addi	a0,a5,-1952 # 2860 <__iob+0x1f8>
    1548:	233000ef          	jal	ra,1f7a <puts>
D:\Propel_Study\I2C_SPI_Programming_singlecore\Workspace\I2C_SPI_GPIO\Debug/../src/i2c_program.c:215
	 uint8_t isc_erase_flash[4]={0x0E,0x04,0x00,0x00};
    154c:	40e00793          	li	a5,1038
    1550:	fef42023          	sw	a5,-32(s0)
D:\Propel_Study\I2C_SPI_Programming_singlecore\Workspace\I2C_SPI_GPIO\Debug/../src/i2c_program.c:218


		i2c_master_write(i2c_master, addr, 4, isc_erase_flash);
    1554:	fd744783          	lbu	a5,-41(s0)
    1558:	07c2                	slli	a5,a5,0x10
    155a:	83c1                	srli	a5,a5,0x10
    155c:	fe040713          	addi	a4,s0,-32
    1560:	86ba                	mv	a3,a4
    1562:	4611                	li	a2,4
    1564:	85be                	mv	a1,a5
    1566:	fd842503          	lw	a0,-40(s0)
    156a:	9d9ff0ef          	jal	ra,f42 <i2c_master_write>
D:\Propel_Study\I2C_SPI_Programming_singlecore\Workspace\I2C_SPI_GPIO\Debug/../src/i2c_program.c:221

		//delayMS(8000);
		int total_ms=10000;
    156e:	6789                	lui	a5,0x2
    1570:	71078793          	addi	a5,a5,1808 # 2710 <__iob+0xa8>
    1574:	fef42223          	sw	a5,-28(s0)
D:\Propel_Study\I2C_SPI_Programming_singlecore\Workspace\I2C_SPI_GPIO\Debug/../src/i2c_program.c:222
		int elapsed=0;
    1578:	fe042623          	sw	zero,-20(s0)
D:\Propel_Study\I2C_SPI_Programming_singlecore\Workspace\I2C_SPI_GPIO\Debug/../src/i2c_program.c:223
		int led_state=0;
    157c:	fe042423          	sw	zero,-24(s0)
D:\Propel_Study\I2C_SPI_Programming_singlecore\Workspace\I2C_SPI_GPIO\Debug/../src/i2c_program.c:224
	    while (elapsed < total_ms) {
    1580:	a815                	j	15b4 <i2c_isc_erase_flash_XO2_XO3+0x88>
D:\Propel_Study\I2C_SPI_Programming_singlecore\Workspace\I2C_SPI_GPIO\Debug/../src/i2c_program.c:225
	        gpio_output_write(gpio, 0, led_state);         // Set LED
    1582:	fe842783          	lw	a5,-24(s0)
    1586:	863e                	mv	a2,a5
    1588:	4581                	li	a1,0
    158a:	fdc42503          	lw	a0,-36(s0)
    158e:	3339                	jal	129c <gpio_output_write>
D:\Propel_Study\I2C_SPI_Programming_singlecore\Workspace\I2C_SPI_GPIO\Debug/../src/i2c_program.c:226
	        led_state = !led_state;                          // Toggle LED
    1590:	fe842783          	lw	a5,-24(s0)
    1594:	0017b793          	seqz	a5,a5
    1598:	0ff7f793          	zext.b	a5,a5
    159c:	fef42423          	sw	a5,-24(s0)
D:\Propel_Study\I2C_SPI_Programming_singlecore\Workspace\I2C_SPI_GPIO\Debug/../src/i2c_program.c:227
	        delayMS(500);                      // Wait
    15a0:	1f400513          	li	a0,500
    15a4:	115000ef          	jal	ra,1eb8 <delayMS>
D:\Propel_Study\I2C_SPI_Programming_singlecore\Workspace\I2C_SPI_GPIO\Debug/../src/i2c_program.c:228
	        elapsed +=500;                    // Accumulate time
    15a8:	fec42783          	lw	a5,-20(s0)
    15ac:	1f478793          	addi	a5,a5,500
    15b0:	fef42623          	sw	a5,-20(s0)
D:\Propel_Study\I2C_SPI_Programming_singlecore\Workspace\I2C_SPI_GPIO\Debug/../src/i2c_program.c:224
	    while (elapsed < total_ms) {
    15b4:	fec42703          	lw	a4,-20(s0)
    15b8:	fe442783          	lw	a5,-28(s0)
    15bc:	fcf743e3          	blt	a4,a5,1582 <i2c_isc_erase_flash_XO2_XO3+0x56>
D:\Propel_Study\I2C_SPI_Programming_singlecore\Workspace\I2C_SPI_GPIO\Debug/../src/i2c_program.c:230
	    }
	 printf("Internal Flash Erased!\n");
    15c0:	678d                	lui	a5,0x3
    15c2:	87c78513          	addi	a0,a5,-1924 # 287c <__iob+0x214>
    15c6:	1b5000ef          	jal	ra,1f7a <puts>
D:\Propel_Study\I2C_SPI_Programming_singlecore\Workspace\I2C_SPI_GPIO\Debug/../src/i2c_program.c:234



}
    15ca:	0001                	nop
    15cc:	50b2                	lw	ra,44(sp)
    15ce:	5422                	lw	s0,40(sp)
    15d0:	6145                	addi	sp,sp,48
    15d2:	8082                	ret

000015d4 <i2c_isc_enable_flash_XO2_XO3>:
i2c_isc_enable_flash_XO2_XO3():
D:\Propel_Study\I2C_SPI_Programming_singlecore\Workspace\I2C_SPI_GPIO\Debug/../src/i2c_program.c:236

void i2c_isc_enable_flash_XO2_XO3(struct i2cm_instance *i2c_master,uint8_t addr){
    15d4:	7179                	addi	sp,sp,-48
    15d6:	d606                	sw	ra,44(sp)
    15d8:	d422                	sw	s0,40(sp)
    15da:	1800                	addi	s0,sp,48
    15dc:	fca42e23          	sw	a0,-36(s0)
    15e0:	87ae                	mv	a5,a1
    15e2:	fcf40da3          	sb	a5,-37(s0)
D:\Propel_Study\I2C_SPI_Programming_singlecore\Workspace\I2C_SPI_GPIO\Debug/../src/i2c_program.c:237
	uint8_t isc_enable_flash[4]={0xC6,0x08,0x00};
    15e6:	6785                	lui	a5,0x1
    15e8:	8c678793          	addi	a5,a5,-1850 # 8c6 <reg_32b_read+0x28>
    15ec:	fef42623          	sw	a5,-20(s0)
D:\Propel_Study\I2C_SPI_Programming_singlecore\Workspace\I2C_SPI_GPIO\Debug/../src/i2c_program.c:238
	i2c_master_write(i2c_master, addr, 3, isc_enable_flash);
    15f0:	fdb44783          	lbu	a5,-37(s0)
    15f4:	07c2                	slli	a5,a5,0x10
    15f6:	83c1                	srli	a5,a5,0x10
    15f8:	fec40713          	addi	a4,s0,-20
    15fc:	86ba                	mv	a3,a4
    15fe:	460d                	li	a2,3
    1600:	85be                	mv	a1,a5
    1602:	fdc42503          	lw	a0,-36(s0)
    1606:	93dff0ef          	jal	ra,f42 <i2c_master_write>
D:\Propel_Study\I2C_SPI_Programming_singlecore\Workspace\I2C_SPI_GPIO\Debug/../src/i2c_program.c:239
	delayMS(1);
    160a:	4505                	li	a0,1
    160c:	0ad000ef          	jal	ra,1eb8 <delayMS>
D:\Propel_Study\I2C_SPI_Programming_singlecore\Workspace\I2C_SPI_GPIO\Debug/../src/i2c_program.c:240
	printf("Device Enters Config Mode: Flash\n");
    1610:	678d                	lui	a5,0x3
    1612:	89478513          	addi	a0,a5,-1900 # 2894 <__iob+0x22c>
    1616:	165000ef          	jal	ra,1f7a <puts>
D:\Propel_Study\I2C_SPI_Programming_singlecore\Workspace\I2C_SPI_GPIO\Debug/../src/i2c_program.c:242

}
    161a:	0001                	nop
    161c:	50b2                	lw	ra,44(sp)
    161e:	5422                	lw	s0,40(sp)
    1620:	6145                	addi	sp,sp,48
    1622:	8082                	ret

00001624 <i2c_sr_read>:
i2c_sr_read():
D:\Propel_Study\I2C_SPI_Programming_singlecore\Workspace\I2C_SPI_GPIO\Debug/../src/i2c_program.c:243
void i2c_sr_read(struct i2cm_instance *i2c_master,uint8_t addr){
    1624:	7179                	addi	sp,sp,-48
    1626:	d606                	sw	ra,44(sp)
    1628:	d422                	sw	s0,40(sp)
    162a:	1800                	addi	s0,sp,48
    162c:	fca42e23          	sw	a0,-36(s0)
    1630:	87ae                	mv	a5,a1
    1632:	fcf40da3          	sb	a5,-37(s0)
D:\Propel_Study\I2C_SPI_Programming_singlecore\Workspace\I2C_SPI_GPIO\Debug/../src/i2c_program.c:244
	uint8_t status_reg[4]={0x3C,0x00,0x00,0x00};
    1636:	03c00793          	li	a5,60
    163a:	fef42423          	sw	a5,-24(s0)
D:\Propel_Study\I2C_SPI_Programming_singlecore\Workspace\I2C_SPI_GPIO\Debug/../src/i2c_program.c:246
	uint8_t read[4];
	i2c_master_repeated_start(i2c_master,addr,4,status_reg,4,read);
    163e:	fdb44783          	lbu	a5,-37(s0)
    1642:	01079593          	slli	a1,a5,0x10
    1646:	81c1                	srli	a1,a1,0x10
    1648:	fe440793          	addi	a5,s0,-28
    164c:	fe840693          	addi	a3,s0,-24
    1650:	4711                	li	a4,4
    1652:	4611                	li	a2,4
    1654:	fdc42503          	lw	a0,-36(s0)
    1658:	cdeff0ef          	jal	ra,b36 <i2c_master_repeated_start>
D:\Propel_Study\I2C_SPI_Programming_singlecore\Workspace\I2C_SPI_GPIO\Debug/../src/i2c_program.c:247
	printf("Status Register Read\n");
    165c:	678d                	lui	a5,0x3
    165e:	8b878513          	addi	a0,a5,-1864 # 28b8 <__iob+0x250>
    1662:	119000ef          	jal	ra,1f7a <puts>
D:\Propel_Study\I2C_SPI_Programming_singlecore\Workspace\I2C_SPI_GPIO\Debug/../src/i2c_program.c:248
	for(int i=0;i<4;i++){
    1666:	fe042623          	sw	zero,-20(s0)
    166a:	a01d                	j	1690 <i2c_sr_read+0x6c>
D:\Propel_Study\I2C_SPI_Programming_singlecore\Workspace\I2C_SPI_GPIO\Debug/../src/i2c_program.c:249 (discriminator 3)
			printf("0x%02x\n",read[i]);
    166c:	fec42783          	lw	a5,-20(s0)
    1670:	ff040713          	addi	a4,s0,-16
    1674:	97ba                	add	a5,a5,a4
    1676:	ff47c783          	lbu	a5,-12(a5)
    167a:	85be                	mv	a1,a5
    167c:	678d                	lui	a5,0x3
    167e:	8d078513          	addi	a0,a5,-1840 # 28d0 <__iob+0x268>
    1682:	0d3000ef          	jal	ra,1f54 <printf>
D:\Propel_Study\I2C_SPI_Programming_singlecore\Workspace\I2C_SPI_GPIO\Debug/../src/i2c_program.c:248 (discriminator 3)
	for(int i=0;i<4;i++){
    1686:	fec42783          	lw	a5,-20(s0)
    168a:	0785                	addi	a5,a5,1
    168c:	fef42623          	sw	a5,-20(s0)
D:\Propel_Study\I2C_SPI_Programming_singlecore\Workspace\I2C_SPI_GPIO\Debug/../src/i2c_program.c:248 (discriminator 1)
    1690:	fec42703          	lw	a4,-20(s0)
    1694:	478d                	li	a5,3
    1696:	fce7dbe3          	bge	a5,a4,166c <i2c_sr_read+0x48>
D:\Propel_Study\I2C_SPI_Programming_singlecore\Workspace\I2C_SPI_GPIO\Debug/../src/i2c_program.c:253

	}

}
    169a:	0001                	nop
    169c:	0001                	nop
    169e:	50b2                	lw	ra,44(sp)
    16a0:	5422                	lw	s0,40(sp)
    16a2:	6145                	addi	sp,sp,48
    16a4:	8082                	ret

000016a6 <i2c_isc_erase_sram>:
i2c_isc_erase_sram():
D:\Propel_Study\I2C_SPI_Programming_singlecore\Workspace\I2C_SPI_GPIO\Debug/../src/i2c_program.c:254
void i2c_isc_erase_sram(struct i2cm_instance *i2c_master,uint8_t addr){
    16a6:	7179                	addi	sp,sp,-48
    16a8:	d606                	sw	ra,44(sp)
    16aa:	d422                	sw	s0,40(sp)
    16ac:	1800                	addi	s0,sp,48
    16ae:	fca42e23          	sw	a0,-36(s0)
    16b2:	87ae                	mv	a5,a1
    16b4:	fcf40da3          	sb	a5,-37(s0)
D:\Propel_Study\I2C_SPI_Programming_singlecore\Workspace\I2C_SPI_GPIO\Debug/../src/i2c_program.c:255
	uint8_t isc_erase_sram[4]={0x0E,0x01,0x00,0x00};
    16b8:	10e00793          	li	a5,270
    16bc:	fef42623          	sw	a5,-20(s0)
D:\Propel_Study\I2C_SPI_Programming_singlecore\Workspace\I2C_SPI_GPIO\Debug/../src/i2c_program.c:256
	printf("Erasing internal SRAM\n");
    16c0:	678d                	lui	a5,0x3
    16c2:	8d878513          	addi	a0,a5,-1832 # 28d8 <__iob+0x270>
    16c6:	0b5000ef          	jal	ra,1f7a <puts>
D:\Propel_Study\I2C_SPI_Programming_singlecore\Workspace\I2C_SPI_GPIO\Debug/../src/i2c_program.c:257
	i2c_master_write(i2c_master, addr, 4, isc_erase_sram);
    16ca:	fdb44783          	lbu	a5,-37(s0)
    16ce:	07c2                	slli	a5,a5,0x10
    16d0:	83c1                	srli	a5,a5,0x10
    16d2:	fec40713          	addi	a4,s0,-20
    16d6:	86ba                	mv	a3,a4
    16d8:	4611                	li	a2,4
    16da:	85be                	mv	a1,a5
    16dc:	fdc42503          	lw	a0,-36(s0)
    16e0:	863ff0ef          	jal	ra,f42 <i2c_master_write>
D:\Propel_Study\I2C_SPI_Programming_singlecore\Workspace\I2C_SPI_GPIO\Debug/../src/i2c_program.c:258
	delayMS(5);
    16e4:	4515                	li	a0,5
    16e6:	7d2000ef          	jal	ra,1eb8 <delayMS>
D:\Propel_Study\I2C_SPI_Programming_singlecore\Workspace\I2C_SPI_GPIO\Debug/../src/i2c_program.c:260

}
    16ea:	0001                	nop
    16ec:	50b2                	lw	ra,44(sp)
    16ee:	5422                	lw	s0,40(sp)
    16f0:	6145                	addi	sp,sp,48
    16f2:	8082                	ret

000016f4 <i2c_isc_enable_sram>:
i2c_isc_enable_sram():
D:\Propel_Study\I2C_SPI_Programming_singlecore\Workspace\I2C_SPI_GPIO\Debug/../src/i2c_program.c:262

void i2c_isc_enable_sram(struct i2cm_instance *i2c_master,uint8_t addr){
    16f4:	7179                	addi	sp,sp,-48
    16f6:	d606                	sw	ra,44(sp)
    16f8:	d422                	sw	s0,40(sp)
    16fa:	1800                	addi	s0,sp,48
    16fc:	fca42e23          	sw	a0,-36(s0)
    1700:	87ae                	mv	a5,a1
    1702:	fcf40da3          	sb	a5,-37(s0)
D:\Propel_Study\I2C_SPI_Programming_singlecore\Workspace\I2C_SPI_GPIO\Debug/../src/i2c_program.c:263
	uint8_t isc_enable_sram[4]={0xC6,0x00,0x00,0x00};
    1706:	0c600793          	li	a5,198
    170a:	fef42623          	sw	a5,-20(s0)
D:\Propel_Study\I2C_SPI_Programming_singlecore\Workspace\I2C_SPI_GPIO\Debug/../src/i2c_program.c:264
	i2c_master_write(i2c_master, addr, 4, isc_enable_sram);
    170e:	fdb44783          	lbu	a5,-37(s0)
    1712:	07c2                	slli	a5,a5,0x10
    1714:	83c1                	srli	a5,a5,0x10
    1716:	fec40713          	addi	a4,s0,-20
    171a:	86ba                	mv	a3,a4
    171c:	4611                	li	a2,4
    171e:	85be                	mv	a1,a5
    1720:	fdc42503          	lw	a0,-36(s0)
    1724:	81fff0ef          	jal	ra,f42 <i2c_master_write>
D:\Propel_Study\I2C_SPI_Programming_singlecore\Workspace\I2C_SPI_GPIO\Debug/../src/i2c_program.c:265
	delayMS(1);
    1728:	4505                	li	a0,1
    172a:	78e000ef          	jal	ra,1eb8 <delayMS>
D:\Propel_Study\I2C_SPI_Programming_singlecore\Workspace\I2C_SPI_GPIO\Debug/../src/i2c_program.c:266
	printf("Device Enters Config Mode: SRAM\n");
    172e:	678d                	lui	a5,0x3
    1730:	8f078513          	addi	a0,a5,-1808 # 28f0 <__iob+0x288>
    1734:	047000ef          	jal	ra,1f7a <puts>
D:\Propel_Study\I2C_SPI_Programming_singlecore\Workspace\I2C_SPI_GPIO\Debug/../src/i2c_program.c:269


}
    1738:	0001                	nop
    173a:	50b2                	lw	ra,44(sp)
    173c:	5422                	lw	s0,40(sp)
    173e:	6145                	addi	sp,sp,48
    1740:	8082                	ret

00001742 <i2c_device_id>:
i2c_device_id():
D:\Propel_Study\I2C_SPI_Programming_singlecore\Workspace\I2C_SPI_GPIO\Debug/../src/i2c_program.c:271

void  i2c_device_id(struct i2cm_instance *i2c_master,uint8_t addr){
    1742:	7179                	addi	sp,sp,-48
    1744:	d606                	sw	ra,44(sp)
    1746:	d422                	sw	s0,40(sp)
    1748:	1800                	addi	s0,sp,48
    174a:	fca42e23          	sw	a0,-36(s0)
    174e:	87ae                	mv	a5,a1
    1750:	fcf40da3          	sb	a5,-37(s0)
D:\Propel_Study\I2C_SPI_Programming_singlecore\Workspace\I2C_SPI_GPIO\Debug/../src/i2c_program.c:273

	uint8_t device_id[4]={0xE0,0x00,0x00,00};
    1754:	0e000793          	li	a5,224
    1758:	fef42423          	sw	a5,-24(s0)
D:\Propel_Study\I2C_SPI_Programming_singlecore\Workspace\I2C_SPI_GPIO\Debug/../src/i2c_program.c:275
	uint8_t read[4];
	i2c_master_repeated_start(i2c_master,addr,4,device_id,4,read);
    175c:	fdb44783          	lbu	a5,-37(s0)
    1760:	01079593          	slli	a1,a5,0x10
    1764:	81c1                	srli	a1,a1,0x10
    1766:	fe440793          	addi	a5,s0,-28
    176a:	fe840693          	addi	a3,s0,-24
    176e:	4711                	li	a4,4
    1770:	4611                	li	a2,4
    1772:	fdc42503          	lw	a0,-36(s0)
    1776:	bc0ff0ef          	jal	ra,b36 <i2c_master_repeated_start>
D:\Propel_Study\I2C_SPI_Programming_singlecore\Workspace\I2C_SPI_GPIO\Debug/../src/i2c_program.c:276
	printf("Device ID Read\n");
    177a:	678d                	lui	a5,0x3
    177c:	91078513          	addi	a0,a5,-1776 # 2910 <__iob+0x2a8>
    1780:	7fa000ef          	jal	ra,1f7a <puts>
D:\Propel_Study\I2C_SPI_Programming_singlecore\Workspace\I2C_SPI_GPIO\Debug/../src/i2c_program.c:277
	for(int i=0;i<4;i++){
    1784:	fe042623          	sw	zero,-20(s0)
    1788:	a01d                	j	17ae <i2c_device_id+0x6c>
D:\Propel_Study\I2C_SPI_Programming_singlecore\Workspace\I2C_SPI_GPIO\Debug/../src/i2c_program.c:278 (discriminator 3)
			printf("0x%02x\n",read[i]);
    178a:	fec42783          	lw	a5,-20(s0)
    178e:	ff040713          	addi	a4,s0,-16
    1792:	97ba                	add	a5,a5,a4
    1794:	ff47c783          	lbu	a5,-12(a5)
    1798:	85be                	mv	a1,a5
    179a:	678d                	lui	a5,0x3
    179c:	8d078513          	addi	a0,a5,-1840 # 28d0 <__iob+0x268>
    17a0:	7b4000ef          	jal	ra,1f54 <printf>
D:\Propel_Study\I2C_SPI_Programming_singlecore\Workspace\I2C_SPI_GPIO\Debug/../src/i2c_program.c:277 (discriminator 3)
	for(int i=0;i<4;i++){
    17a4:	fec42783          	lw	a5,-20(s0)
    17a8:	0785                	addi	a5,a5,1
    17aa:	fef42623          	sw	a5,-20(s0)
D:\Propel_Study\I2C_SPI_Programming_singlecore\Workspace\I2C_SPI_GPIO\Debug/../src/i2c_program.c:277 (discriminator 1)
    17ae:	fec42703          	lw	a4,-20(s0)
    17b2:	478d                	li	a5,3
    17b4:	fce7dbe3          	bge	a5,a4,178a <i2c_device_id+0x48>
D:\Propel_Study\I2C_SPI_Programming_singlecore\Workspace\I2C_SPI_GPIO\Debug/../src/i2c_program.c:283

	}


}
    17b8:	0001                	nop
    17ba:	0001                	nop
    17bc:	50b2                	lw	ra,44(sp)
    17be:	5422                	lw	s0,40(sp)
    17c0:	6145                	addi	sp,sp,48
    17c2:	8082                	ret

000017c4 <i2c_flash_program_spiflash>:
i2c_flash_program_spiflash():
D:\Propel_Study\I2C_SPI_Programming_singlecore\Workspace\I2C_SPI_GPIO\Debug/../src/i2c_program.c:284
void i2c_flash_program_spiflash(struct gpio_instance *gpio,struct i2cm_instance *i2c_master,uint8_t slv_addr,struct spim_instance *spi_master,uint32_t start_addr,uint32_t end_addr){
    17c4:	711d                	addi	sp,sp,-96
    17c6:	ce86                	sw	ra,92(sp)
    17c8:	cca2                	sw	s0,88(sp)
    17ca:	1080                	addi	s0,sp,96
    17cc:	faa42e23          	sw	a0,-68(s0)
    17d0:	fab42c23          	sw	a1,-72(s0)
    17d4:	fad42823          	sw	a3,-80(s0)
    17d8:	fae42623          	sw	a4,-84(s0)
    17dc:	faf42423          	sw	a5,-88(s0)
    17e0:	87b2                	mv	a5,a2
    17e2:	faf40ba3          	sb	a5,-73(s0)
D:\Propel_Study\I2C_SPI_Programming_singlecore\Workspace\I2C_SPI_GPIO\Debug/../src/i2c_program.c:288

	uint8_t read_command_address_a[4];
	uint8_t read_buffer_a[16];  // Read 16 bytes at a time
	uint8_t lsc_prog_incr[4]={0x70,0x00,0x00,0x00};
    17e6:	07000793          	li	a5,112
    17ea:	fcf42a23          	sw	a5,-44(s0)
D:\Propel_Study\I2C_SPI_Programming_singlecore\Workspace\I2C_SPI_GPIO\Debug/../src/i2c_program.c:290
	uint8_t prog_buffer[20];
	printf("Programming internal flash from SPI Flash from address 0x%06x to 0x%06x \n",start_addr,end_addr);
    17ee:	fa842603          	lw	a2,-88(s0)
    17f2:	fac42583          	lw	a1,-84(s0)
    17f6:	678d                	lui	a5,0x3
    17f8:	92078513          	addi	a0,a5,-1760 # 2920 <__iob+0x2b8>
    17fc:	758000ef          	jal	ra,1f54 <printf>
D:\Propel_Study\I2C_SPI_Programming_singlecore\Workspace\I2C_SPI_GPIO\Debug/../src/i2c_program.c:291
	for (uint32_t addr = start_addr; addr <= end_addr; addr += 16) {
    1800:	fac42783          	lw	a5,-84(s0)
    1804:	fef42623          	sw	a5,-20(s0)
    1808:	a0c9                	j	18ca <i2c_flash_program_spiflash+0x106>
D:\Propel_Study\I2C_SPI_Programming_singlecore\Workspace\I2C_SPI_GPIO\Debug/../src/i2c_program.c:293
	    // Prepare READ command and 24-bit address
	    read_command_address_a[0] = 0x03;                     // READ command
    180a:	478d                	li	a5,3
    180c:	fef40423          	sb	a5,-24(s0)
D:\Propel_Study\I2C_SPI_Programming_singlecore\Workspace\I2C_SPI_GPIO\Debug/../src/i2c_program.c:294
	    read_command_address_a[1] = (addr >> 16) & 0xFF;
    1810:	fec42783          	lw	a5,-20(s0)
    1814:	83c1                	srli	a5,a5,0x10
    1816:	0ff7f793          	zext.b	a5,a5
    181a:	fef404a3          	sb	a5,-23(s0)
D:\Propel_Study\I2C_SPI_Programming_singlecore\Workspace\I2C_SPI_GPIO\Debug/../src/i2c_program.c:295
	    read_command_address_a[2] = (addr >> 8) & 0xFF;
    181e:	fec42783          	lw	a5,-20(s0)
    1822:	83a1                	srli	a5,a5,0x8
    1824:	0ff7f793          	zext.b	a5,a5
    1828:	fef40523          	sb	a5,-22(s0)
D:\Propel_Study\I2C_SPI_Programming_singlecore\Workspace\I2C_SPI_GPIO\Debug/../src/i2c_program.c:296
	    read_command_address_a[3] = addr & 0xFF;
    182c:	fec42783          	lw	a5,-20(s0)
    1830:	0ff7f793          	zext.b	a5,a5
    1834:	fef405a3          	sb	a5,-21(s0)
D:\Propel_Study\I2C_SPI_Programming_singlecore\Workspace\I2C_SPI_GPIO\Debug/../src/i2c_program.c:305

	   // 	printf("Address and command: %02x \n",read_command_address_a[i]);

	   // }

	    spi_master_transfer_blocking(spi_master,
    1838:	fd840693          	addi	a3,s0,-40
    183c:	fe840793          	addi	a5,s0,-24
    1840:	4741                	li	a4,16
    1842:	4611                	li	a2,4
    1844:	85be                	mv	a1,a5
    1846:	fb042503          	lw	a0,-80(s0)
    184a:	b53fe0ef          	jal	ra,39c <spi_master_transfer_blocking>
D:\Propel_Study\I2C_SPI_Programming_singlecore\Workspace\I2C_SPI_GPIO\Debug/../src/i2c_program.c:311
	                                 read_command_address_a,  // 1-byte cmd + 3-byte addr
	                                 4,
	                                 read_buffer_a,           // Data buffer
	                                 16);                   // Read 16 bytes

		memcpy(prog_buffer, lsc_prog_incr, 4);
    184e:	fd442783          	lw	a5,-44(s0)
    1852:	fcf42023          	sw	a5,-64(s0)
D:\Propel_Study\I2C_SPI_Programming_singlecore\Workspace\I2C_SPI_GPIO\Debug/../src/i2c_program.c:312
		memcpy(prog_buffer+4, read_buffer_a, 16);
    1856:	fc040793          	addi	a5,s0,-64
    185a:	0791                	addi	a5,a5,4
    185c:	86be                	mv	a3,a5
    185e:	fd840793          	addi	a5,s0,-40
    1862:	4741                	li	a4,16
    1864:	863a                	mv	a2,a4
    1866:	85be                	mv	a1,a5
    1868:	8536                	mv	a0,a3
    186a:	423000ef          	jal	ra,248c <memcpy>
D:\Propel_Study\I2C_SPI_Programming_singlecore\Workspace\I2C_SPI_GPIO\Debug/../src/i2c_program.c:321
	        printf("%02X ",prog_buffer[i]);
	    }
	    printf("\n");*/


		i2c_master_write(i2c_master, slv_addr, 20, prog_buffer);
    186e:	fb744783          	lbu	a5,-73(s0)
    1872:	07c2                	slli	a5,a5,0x10
    1874:	83c1                	srli	a5,a5,0x10
    1876:	fc040713          	addi	a4,s0,-64
    187a:	86ba                	mv	a3,a4
    187c:	4651                	li	a2,20
    187e:	85be                	mv	a1,a5
    1880:	fb842503          	lw	a0,-72(s0)
    1884:	ebeff0ef          	jal	ra,f42 <i2c_master_write>
D:\Propel_Study\I2C_SPI_Programming_singlecore\Workspace\I2C_SPI_GPIO\Debug/../src/i2c_program.c:322
		delayMS(5);
    1888:	4515                	li	a0,5
    188a:	253d                	jal	1eb8 <delayMS>
D:\Propel_Study\I2C_SPI_Programming_singlecore\Workspace\I2C_SPI_GPIO\Debug/../src/i2c_program.c:323
		if (addr%0x200==0){
    188c:	fec42783          	lw	a5,-20(s0)
    1890:	1ff7f793          	andi	a5,a5,511
    1894:	eb81                	bnez	a5,18a4 <i2c_flash_program_spiflash+0xe0>
D:\Propel_Study\I2C_SPI_Programming_singlecore\Workspace\I2C_SPI_GPIO\Debug/../src/i2c_program.c:324
			gpio_output_write(gpio,0, 1);
    1896:	4605                	li	a2,1
    1898:	4581                	li	a1,0
    189a:	fbc42503          	lw	a0,-68(s0)
    189e:	9ffff0ef          	jal	ra,129c <gpio_output_write>
    18a2:	a839                	j	18c0 <i2c_flash_program_spiflash+0xfc>
D:\Propel_Study\I2C_SPI_Programming_singlecore\Workspace\I2C_SPI_GPIO\Debug/../src/i2c_program.c:327
		}

		else if (addr%0x200==0x100) {
    18a4:	fec42783          	lw	a5,-20(s0)
    18a8:	1ff7f713          	andi	a4,a5,511
    18ac:	10000793          	li	a5,256
    18b0:	00f71863          	bne	a4,a5,18c0 <i2c_flash_program_spiflash+0xfc>
D:\Propel_Study\I2C_SPI_Programming_singlecore\Workspace\I2C_SPI_GPIO\Debug/../src/i2c_program.c:328
			gpio_output_write(gpio,0, 0);
    18b4:	4601                	li	a2,0
    18b6:	4581                	li	a1,0
    18b8:	fbc42503          	lw	a0,-68(s0)
    18bc:	9e1ff0ef          	jal	ra,129c <gpio_output_write>
D:\Propel_Study\I2C_SPI_Programming_singlecore\Workspace\I2C_SPI_GPIO\Debug/../src/i2c_program.c:291 (discriminator 2)
	for (uint32_t addr = start_addr; addr <= end_addr; addr += 16) {
    18c0:	fec42783          	lw	a5,-20(s0)
    18c4:	07c1                	addi	a5,a5,16
    18c6:	fef42623          	sw	a5,-20(s0)
D:\Propel_Study\I2C_SPI_Programming_singlecore\Workspace\I2C_SPI_GPIO\Debug/../src/i2c_program.c:291 (discriminator 1)
    18ca:	fec42703          	lw	a4,-20(s0)
    18ce:	fa842783          	lw	a5,-88(s0)
    18d2:	f2e7fce3          	bgeu	a5,a4,180a <i2c_flash_program_spiflash+0x46>
D:\Propel_Study\I2C_SPI_Programming_singlecore\Workspace\I2C_SPI_GPIO\Debug/../src/i2c_program.c:333

		}
	  }

	}
    18d6:	0001                	nop
    18d8:	0001                	nop
    18da:	40f6                	lw	ra,92(sp)
    18dc:	4466                	lw	s0,88(sp)
    18de:	6125                	addi	sp,sp,96
    18e0:	8082                	ret

000018e2 <i2c_flash_verify_spiflash>:
i2c_flash_verify_spiflash():
D:\Propel_Study\I2C_SPI_Programming_singlecore\Workspace\I2C_SPI_GPIO\Debug/../src/i2c_program.c:336


void i2c_flash_verify_spiflash(struct gpio_instance *gpio,struct i2cm_instance *i2c_master,uint8_t slv_addr,struct spim_instance *spi_master,uint32_t start_addr,uint32_t end_addr){
    18e2:	711d                	addi	sp,sp,-96
    18e4:	ce86                	sw	ra,92(sp)
    18e6:	cca2                	sw	s0,88(sp)
    18e8:	1080                	addi	s0,sp,96
    18ea:	faa42e23          	sw	a0,-68(s0)
    18ee:	fab42c23          	sw	a1,-72(s0)
    18f2:	fad42823          	sw	a3,-80(s0)
    18f6:	fae42623          	sw	a4,-84(s0)
    18fa:	faf42423          	sw	a5,-88(s0)
    18fe:	87b2                	mv	a5,a2
    1900:	faf40ba3          	sb	a5,-73(s0)
D:\Propel_Study\I2C_SPI_Programming_singlecore\Workspace\I2C_SPI_GPIO\Debug/../src/i2c_program.c:339


	uint8_t lsc_read_incr[4]={0x73,0x00,0x00,0x00};
    1904:	07300793          	li	a5,115
    1908:	fef42423          	sw	a5,-24(s0)
D:\Propel_Study\I2C_SPI_Programming_singlecore\Workspace\I2C_SPI_GPIO\Debug/../src/i2c_program.c:343
	uint8_t read_buffer[16];
	uint8_t read_command_address_a[4];
	uint8_t read_buffer_spi[16];  // Read 16 bytes at a time
    printf("Verifying internal flash..\n");
    190c:	6789                	lui	a5,0x2
    190e:	75c78513          	addi	a0,a5,1884 # 275c <__iob+0xf4>
    1912:	668000ef          	jal	ra,1f7a <puts>
D:\Propel_Study\I2C_SPI_Programming_singlecore\Workspace\I2C_SPI_GPIO\Debug/../src/i2c_program.c:346


	for (uint32_t addr = start_addr; addr <= end_addr; addr += 16) {
    1916:	fac42783          	lw	a5,-84(s0)
    191a:	fef42623          	sw	a5,-20(s0)
    191e:	a8c9                	j	19f0 <i2c_flash_verify_spiflash+0x10e>
D:\Propel_Study\I2C_SPI_Programming_singlecore\Workspace\I2C_SPI_GPIO\Debug/../src/i2c_program.c:348
	    // Prepare READ command and 24-bit address
	    read_command_address_a[0] = 0x03;                     // READ command
    1920:	478d                	li	a5,3
    1922:	fcf40a23          	sb	a5,-44(s0)
D:\Propel_Study\I2C_SPI_Programming_singlecore\Workspace\I2C_SPI_GPIO\Debug/../src/i2c_program.c:349
	    read_command_address_a[1] = (addr >> 16) & 0xFF;
    1926:	fec42783          	lw	a5,-20(s0)
    192a:	83c1                	srli	a5,a5,0x10
    192c:	0ff7f793          	zext.b	a5,a5
    1930:	fcf40aa3          	sb	a5,-43(s0)
D:\Propel_Study\I2C_SPI_Programming_singlecore\Workspace\I2C_SPI_GPIO\Debug/../src/i2c_program.c:350
	    read_command_address_a[2] = (addr >> 8) & 0xFF;
    1934:	fec42783          	lw	a5,-20(s0)
    1938:	83a1                	srli	a5,a5,0x8
    193a:	0ff7f793          	zext.b	a5,a5
    193e:	fcf40b23          	sb	a5,-42(s0)
D:\Propel_Study\I2C_SPI_Programming_singlecore\Workspace\I2C_SPI_GPIO\Debug/../src/i2c_program.c:351
	    read_command_address_a[3] = addr & 0xFF;
    1942:	fec42783          	lw	a5,-20(s0)
    1946:	0ff7f793          	zext.b	a5,a5
    194a:	fcf40ba3          	sb	a5,-41(s0)
D:\Propel_Study\I2C_SPI_Programming_singlecore\Workspace\I2C_SPI_GPIO\Debug/../src/i2c_program.c:353

	    spi_master_transfer_blocking(spi_master,
    194e:	fc440693          	addi	a3,s0,-60
    1952:	fd440793          	addi	a5,s0,-44
    1956:	4741                	li	a4,16
    1958:	4611                	li	a2,4
    195a:	85be                	mv	a1,a5
    195c:	fb042503          	lw	a0,-80(s0)
    1960:	a3dfe0ef          	jal	ra,39c <spi_master_transfer_blocking>
D:\Propel_Study\I2C_SPI_Programming_singlecore\Workspace\I2C_SPI_GPIO\Debug/../src/i2c_program.c:358
	                                 read_command_address_a,  // 1-byte cmd + 3-byte addr
	                                 4,
	                                 read_buffer_spi,           // Data buffer
	                                 16);
	    delayMS(2);
    1964:	4509                	li	a0,2
    1966:	2b89                	jal	1eb8 <delayMS>
D:\Propel_Study\I2C_SPI_Programming_singlecore\Workspace\I2C_SPI_GPIO\Debug/../src/i2c_program.c:359
	    i2c_master_repeated_start(i2c_master,slv_addr,4,lsc_read_incr,16,read_buffer);
    1968:	fb744783          	lbu	a5,-73(s0)
    196c:	01079593          	slli	a1,a5,0x10
    1970:	81c1                	srli	a1,a1,0x10
    1972:	fd840793          	addi	a5,s0,-40
    1976:	fe840693          	addi	a3,s0,-24
    197a:	4741                	li	a4,16
    197c:	4611                	li	a2,4
    197e:	fb842503          	lw	a0,-72(s0)
    1982:	9b4ff0ef          	jal	ra,b36 <i2c_master_repeated_start>
D:\Propel_Study\I2C_SPI_Programming_singlecore\Workspace\I2C_SPI_GPIO\Debug/../src/i2c_program.c:366
	   // for (int i = 0; i < 16; i++) {
	  //      printf("%02X ",read_buffer[i]);
	  //  }
	   // printf("\n");

		if (addr%0x200==0){
    1986:	fec42783          	lw	a5,-20(s0)
    198a:	1ff7f793          	andi	a5,a5,511
    198e:	eb81                	bnez	a5,199e <i2c_flash_verify_spiflash+0xbc>
D:\Propel_Study\I2C_SPI_Programming_singlecore\Workspace\I2C_SPI_GPIO\Debug/../src/i2c_program.c:367
			gpio_output_write(gpio,0, 1);
    1990:	4605                	li	a2,1
    1992:	4581                	li	a1,0
    1994:	fbc42503          	lw	a0,-68(s0)
    1998:	905ff0ef          	jal	ra,129c <gpio_output_write>
    199c:	a839                	j	19ba <i2c_flash_verify_spiflash+0xd8>
D:\Propel_Study\I2C_SPI_Programming_singlecore\Workspace\I2C_SPI_GPIO\Debug/../src/i2c_program.c:370
		}

		else if (addr%0x200==0x100) {
    199e:	fec42783          	lw	a5,-20(s0)
    19a2:	1ff7f713          	andi	a4,a5,511
    19a6:	10000793          	li	a5,256
    19aa:	00f71863          	bne	a4,a5,19ba <i2c_flash_verify_spiflash+0xd8>
D:\Propel_Study\I2C_SPI_Programming_singlecore\Workspace\I2C_SPI_GPIO\Debug/../src/i2c_program.c:371
			gpio_output_write(gpio,0, 0);
    19ae:	4601                	li	a2,0
    19b0:	4581                	li	a1,0
    19b2:	fbc42503          	lw	a0,-68(s0)
    19b6:	8e7ff0ef          	jal	ra,129c <gpio_output_write>
D:\Propel_Study\I2C_SPI_Programming_singlecore\Workspace\I2C_SPI_GPIO\Debug/../src/i2c_program.c:374

		}
	   if (memcmp( read_buffer, read_buffer_spi, 16) == 0) {
    19ba:	fc440713          	addi	a4,s0,-60
    19be:	fd840793          	addi	a5,s0,-40
    19c2:	4641                	li	a2,16
    19c4:	85ba                	mv	a1,a4
    19c6:	853e                	mv	a0,a5
    19c8:	239d                	jal	1f2e <memcmp>
    19ca:	87aa                	mv	a5,a0
    19cc:	cf89                	beqz	a5,19e6 <i2c_flash_verify_spiflash+0x104>
D:\Propel_Study\I2C_SPI_Programming_singlecore\Workspace\I2C_SPI_GPIO\Debug/../src/i2c_program.c:377

	   } else {
	       printf("Verify Fail\n");
    19ce:	6789                	lui	a5,0x2
    19d0:	77878513          	addi	a0,a5,1912 # 2778 <__iob+0x110>
    19d4:	235d                	jal	1f7a <puts>
D:\Propel_Study\I2C_SPI_Programming_singlecore\Workspace\I2C_SPI_GPIO\Debug/../src/i2c_program.c:378
	       gpio_output_write(gpio,0, 1);
    19d6:	4605                	li	a2,1
    19d8:	4581                	li	a1,0
    19da:	fbc42503          	lw	a0,-68(s0)
    19de:	8bfff0ef          	jal	ra,129c <gpio_output_write>
D:\Propel_Study\I2C_SPI_Programming_singlecore\Workspace\I2C_SPI_GPIO\Debug/../src/i2c_program.c:379
	       exit(0);
    19e2:	4501                	li	a0,0
    19e4:	2335                	jal	1f10 <exit>
D:\Propel_Study\I2C_SPI_Programming_singlecore\Workspace\I2C_SPI_GPIO\Debug/../src/i2c_program.c:346 (discriminator 2)
	for (uint32_t addr = start_addr; addr <= end_addr; addr += 16) {
    19e6:	fec42783          	lw	a5,-20(s0)
    19ea:	07c1                	addi	a5,a5,16
    19ec:	fef42623          	sw	a5,-20(s0)
D:\Propel_Study\I2C_SPI_Programming_singlecore\Workspace\I2C_SPI_GPIO\Debug/../src/i2c_program.c:346 (discriminator 1)
    19f0:	fec42703          	lw	a4,-20(s0)
    19f4:	fa842783          	lw	a5,-88(s0)
    19f8:	f2e7f4e3          	bgeu	a5,a4,1920 <i2c_flash_verify_spiflash+0x3e>
D:\Propel_Study\I2C_SPI_Programming_singlecore\Workspace\I2C_SPI_GPIO\Debug/../src/i2c_program.c:409

	}

   delayMS(2);
   }*/
   printf("Verify Successful!\n");
    19fc:	6789                	lui	a5,0x2
    19fe:	78478513          	addi	a0,a5,1924 # 2784 <__iob+0x11c>
    1a02:	2ba5                	jal	1f7a <puts>
D:\Propel_Study\I2C_SPI_Programming_singlecore\Workspace\I2C_SPI_GPIO\Debug/../src/i2c_program.c:410
   gpio_output_write(gpio,0, 0);
    1a04:	4601                	li	a2,0
    1a06:	4581                	li	a1,0
    1a08:	fbc42503          	lw	a0,-68(s0)
    1a0c:	891ff0ef          	jal	ra,129c <gpio_output_write>
D:\Propel_Study\I2C_SPI_Programming_singlecore\Workspace\I2C_SPI_GPIO\Debug/../src/i2c_program.c:412

}
    1a10:	0001                	nop
    1a12:	40f6                	lw	ra,92(sp)
    1a14:	4466                	lw	s0,88(sp)
    1a16:	6125                	addi	sp,sp,96
    1a18:	8082                	ret

00001a1a <i2c_program_XO2_XO3_spiflash>:
i2c_program_XO2_XO3_spiflash():
D:\Propel_Study\I2C_SPI_Programming_singlecore\Workspace\I2C_SPI_GPIO\Debug/../src/i2c_program.c:415


void i2c_program_XO2_XO3_spiflash(struct gpio_instance *gpio,struct i2cm_instance *i2c_master,uint8_t addr,struct spim_instance *spi_master, uint32_t start_addr,uint32_t end_addr){
    1a1a:	7179                	addi	sp,sp,-48
    1a1c:	d606                	sw	ra,44(sp)
    1a1e:	d422                	sw	s0,40(sp)
    1a20:	1800                	addi	s0,sp,48
    1a22:	fea42623          	sw	a0,-20(s0)
    1a26:	feb42423          	sw	a1,-24(s0)
    1a2a:	fed42023          	sw	a3,-32(s0)
    1a2e:	fce42e23          	sw	a4,-36(s0)
    1a32:	fcf42c23          	sw	a5,-40(s0)
    1a36:	87b2                	mv	a5,a2
    1a38:	fef403a3          	sb	a5,-25(s0)
D:\Propel_Study\I2C_SPI_Programming_singlecore\Workspace\I2C_SPI_GPIO\Debug/../src/i2c_program.c:417

	printf("======================================================================\n");
    1a3c:	678d                	lui	a5,0x3
    1a3e:	96c78513          	addi	a0,a5,-1684 # 296c <__iob+0x304>
    1a42:	2b25                	jal	1f7a <puts>
D:\Propel_Study\I2C_SPI_Programming_singlecore\Workspace\I2C_SPI_GPIO\Debug/../src/i2c_program.c:418
	printf("Programming MachXO2/XO3 Via I2C with address: 0x%02x from SPI Flash\n",addr);
    1a44:	fe744783          	lbu	a5,-25(s0)
    1a48:	85be                	mv	a1,a5
    1a4a:	678d                	lui	a5,0x3
    1a4c:	9b478513          	addi	a0,a5,-1612 # 29b4 <__iob+0x34c>
    1a50:	2311                	jal	1f54 <printf>
D:\Propel_Study\I2C_SPI_Programming_singlecore\Workspace\I2C_SPI_GPIO\Debug/../src/i2c_program.c:419
	printf("======================================================================\n");
    1a52:	678d                	lui	a5,0x3
    1a54:	96c78513          	addi	a0,a5,-1684 # 296c <__iob+0x304>
    1a58:	230d                	jal	1f7a <puts>
D:\Propel_Study\I2C_SPI_Programming_singlecore\Workspace\I2C_SPI_GPIO\Debug/../src/i2c_program.c:420
	i2c_device_id(i2c_master,addr);//Device ID check
    1a5a:	fe744783          	lbu	a5,-25(s0)
    1a5e:	85be                	mv	a1,a5
    1a60:	fe842503          	lw	a0,-24(s0)
    1a64:	39f9                	jal	1742 <i2c_device_id>
D:\Propel_Study\I2C_SPI_Programming_singlecore\Workspace\I2C_SPI_GPIO\Debug/../src/i2c_program.c:421
	i2c_isc_enable_sram(i2c_master,addr);//ISC Enable SRAM
    1a66:	fe744783          	lbu	a5,-25(s0)
    1a6a:	85be                	mv	a1,a5
    1a6c:	fe842503          	lw	a0,-24(s0)
    1a70:	3151                	jal	16f4 <i2c_isc_enable_sram>
D:\Propel_Study\I2C_SPI_Programming_singlecore\Workspace\I2C_SPI_GPIO\Debug/../src/i2c_program.c:422
	i2c_isc_erase_sram(i2c_master,addr);//ISC Erase SRAM
    1a72:	fe744783          	lbu	a5,-25(s0)
    1a76:	85be                	mv	a1,a5
    1a78:	fe842503          	lw	a0,-24(s0)
    1a7c:	312d                	jal	16a6 <i2c_isc_erase_sram>
D:\Propel_Study\I2C_SPI_Programming_singlecore\Workspace\I2C_SPI_GPIO\Debug/../src/i2c_program.c:423
	i2c_sr_read(i2c_master,addr);//Status Register Read
    1a7e:	fe744783          	lbu	a5,-25(s0)
    1a82:	85be                	mv	a1,a5
    1a84:	fe842503          	lw	a0,-24(s0)
    1a88:	3e71                	jal	1624 <i2c_sr_read>
D:\Propel_Study\I2C_SPI_Programming_singlecore\Workspace\I2C_SPI_GPIO\Debug/../src/i2c_program.c:424
	i2c_isc_enable_flash_XO2_XO3(i2c_master,addr);//ISC Enable Flash
    1a8a:	fe744783          	lbu	a5,-25(s0)
    1a8e:	85be                	mv	a1,a5
    1a90:	fe842503          	lw	a0,-24(s0)
    1a94:	3681                	jal	15d4 <i2c_isc_enable_flash_XO2_XO3>
D:\Propel_Study\I2C_SPI_Programming_singlecore\Workspace\I2C_SPI_GPIO\Debug/../src/i2c_program.c:425
	i2c_sr_read(i2c_master,addr);//Status Register Read
    1a96:	fe744783          	lbu	a5,-25(s0)
    1a9a:	85be                	mv	a1,a5
    1a9c:	fe842503          	lw	a0,-24(s0)
    1aa0:	3651                	jal	1624 <i2c_sr_read>
D:\Propel_Study\I2C_SPI_Programming_singlecore\Workspace\I2C_SPI_GPIO\Debug/../src/i2c_program.c:426
	i2c_lsc_init_address_XO2_XO3(i2c_master,addr);
    1aa2:	fe744783          	lbu	a5,-25(s0)
    1aa6:	85be                	mv	a1,a5
    1aa8:	fe842503          	lw	a0,-24(s0)
    1aac:	977ff0ef          	jal	ra,1422 <i2c_lsc_init_address_XO2_XO3>
D:\Propel_Study\I2C_SPI_Programming_singlecore\Workspace\I2C_SPI_GPIO\Debug/../src/i2c_program.c:427
	i2c_isc_erase_flash_XO2_XO3(gpio,i2c_master,addr);
    1ab0:	fe744783          	lbu	a5,-25(s0)
    1ab4:	863e                	mv	a2,a5
    1ab6:	fe842583          	lw	a1,-24(s0)
    1aba:	fec42503          	lw	a0,-20(s0)
    1abe:	a6fff0ef          	jal	ra,152c <i2c_isc_erase_flash_XO2_XO3>
D:\Propel_Study\I2C_SPI_Programming_singlecore\Workspace\I2C_SPI_GPIO\Debug/../src/i2c_program.c:428
	i2c_lsc_init_address_XO2_XO3(i2c_master,addr);
    1ac2:	fe744783          	lbu	a5,-25(s0)
    1ac6:	85be                	mv	a1,a5
    1ac8:	fe842503          	lw	a0,-24(s0)
    1acc:	957ff0ef          	jal	ra,1422 <i2c_lsc_init_address_XO2_XO3>
D:\Propel_Study\I2C_SPI_Programming_singlecore\Workspace\I2C_SPI_GPIO\Debug/../src/i2c_program.c:429
	i2c_flash_program_spiflash(gpio,i2c_master,addr,spi_master,start_addr,end_addr);
    1ad0:	fe744603          	lbu	a2,-25(s0)
    1ad4:	fd842783          	lw	a5,-40(s0)
    1ad8:	fdc42703          	lw	a4,-36(s0)
    1adc:	fe042683          	lw	a3,-32(s0)
    1ae0:	fe842583          	lw	a1,-24(s0)
    1ae4:	fec42503          	lw	a0,-20(s0)
    1ae8:	39f1                	jal	17c4 <i2c_flash_program_spiflash>
D:\Propel_Study\I2C_SPI_Programming_singlecore\Workspace\I2C_SPI_GPIO\Debug/../src/i2c_program.c:430
	i2c_lsc_init_address_XO2_XO3(i2c_master,addr);
    1aea:	fe744783          	lbu	a5,-25(s0)
    1aee:	85be                	mv	a1,a5
    1af0:	fe842503          	lw	a0,-24(s0)
    1af4:	92fff0ef          	jal	ra,1422 <i2c_lsc_init_address_XO2_XO3>
D:\Propel_Study\I2C_SPI_Programming_singlecore\Workspace\I2C_SPI_GPIO\Debug/../src/i2c_program.c:431
	i2c_flash_verify_spiflash(gpio,i2c_master,addr,spi_master,start_addr,end_addr);
    1af8:	fe744603          	lbu	a2,-25(s0)
    1afc:	fd842783          	lw	a5,-40(s0)
    1b00:	fdc42703          	lw	a4,-36(s0)
    1b04:	fe042683          	lw	a3,-32(s0)
    1b08:	fe842583          	lw	a1,-24(s0)
    1b0c:	fec42503          	lw	a0,-20(s0)
    1b10:	3bc9                	jal	18e2 <i2c_flash_verify_spiflash>
D:\Propel_Study\I2C_SPI_Programming_singlecore\Workspace\I2C_SPI_GPIO\Debug/../src/i2c_program.c:432
	i2c_program_done(i2c_master,addr);// Program Done bit
    1b12:	fe744783          	lbu	a5,-25(s0)
    1b16:	85be                	mv	a1,a5
    1b18:	fe842503          	lw	a0,-24(s0)
    1b1c:	815ff0ef          	jal	ra,1330 <i2c_program_done>
D:\Propel_Study\I2C_SPI_Programming_singlecore\Workspace\I2C_SPI_GPIO\Debug/../src/i2c_program.c:433
	i2c_sr_read(i2c_master,addr);// Status Register Read
    1b20:	fe744783          	lbu	a5,-25(s0)
    1b24:	85be                	mv	a1,a5
    1b26:	fe842503          	lw	a0,-24(s0)
    1b2a:	afbff0ef          	jal	ra,1624 <i2c_sr_read>
D:\Propel_Study\I2C_SPI_Programming_singlecore\Workspace\I2C_SPI_GPIO\Debug/../src/i2c_program.c:434
	i2c_isc_disable(i2c_master,addr);//Device Exits Programming mode*/
    1b2e:	fe744783          	lbu	a5,-25(s0)
    1b32:	85be                	mv	a1,a5
    1b34:	fe842503          	lw	a0,-24(s0)
    1b38:	fb2ff0ef          	jal	ra,12ea <i2c_isc_disable>
D:\Propel_Study\I2C_SPI_Programming_singlecore\Workspace\I2C_SPI_GPIO\Debug/../src/i2c_program.c:436

}
    1b3c:	0001                	nop
    1b3e:	50b2                	lw	ra,44(sp)
    1b40:	5422                	lw	s0,40(sp)
    1b42:	6145                	addi	sp,sp,48
    1b44:	8082                	ret

00001b46 <i2c_program_XO3D_spiflash>:
i2c_program_XO3D_spiflash():
D:\Propel_Study\I2C_SPI_Programming_singlecore\Workspace\I2C_SPI_GPIO\Debug/../src/i2c_program.c:438

void i2c_program_XO3D_spiflash(struct gpio_instance *gpio,struct i2cm_instance *i2c_master,uint8_t addr, struct spim_instance *spi_master, uint32_t start_addr,uint32_t end_addr,int CFG){
    1b46:	7179                	addi	sp,sp,-48
    1b48:	d606                	sw	ra,44(sp)
    1b4a:	d422                	sw	s0,40(sp)
    1b4c:	1800                	addi	s0,sp,48
    1b4e:	fea42623          	sw	a0,-20(s0)
    1b52:	feb42423          	sw	a1,-24(s0)
    1b56:	fed42023          	sw	a3,-32(s0)
    1b5a:	fce42e23          	sw	a4,-36(s0)
    1b5e:	fcf42c23          	sw	a5,-40(s0)
    1b62:	fd042a23          	sw	a6,-44(s0)
    1b66:	87b2                	mv	a5,a2
    1b68:	fef403a3          	sb	a5,-25(s0)
D:\Propel_Study\I2C_SPI_Programming_singlecore\Workspace\I2C_SPI_GPIO\Debug/../src/i2c_program.c:439
	printf("===================================================================\n");
    1b6c:	678d                	lui	a5,0x3
    1b6e:	9fc78513          	addi	a0,a5,-1540 # 29fc <__iob+0x394>
    1b72:	2121                	jal	1f7a <puts>
D:\Propel_Study\I2C_SPI_Programming_singlecore\Workspace\I2C_SPI_GPIO\Debug/../src/i2c_program.c:440
	printf("Programming MachXO3D Via I2C with address: 0x%02x from SPI Flash\n ",addr);
    1b74:	fe744783          	lbu	a5,-25(s0)
    1b78:	85be                	mv	a1,a5
    1b7a:	678d                	lui	a5,0x3
    1b7c:	a4078513          	addi	a0,a5,-1472 # 2a40 <__iob+0x3d8>
    1b80:	2ed1                	jal	1f54 <printf>
D:\Propel_Study\I2C_SPI_Programming_singlecore\Workspace\I2C_SPI_GPIO\Debug/../src/i2c_program.c:441
	printf("===================================================================\n");
    1b82:	678d                	lui	a5,0x3
    1b84:	9fc78513          	addi	a0,a5,-1540 # 29fc <__iob+0x394>
    1b88:	2ecd                	jal	1f7a <puts>
D:\Propel_Study\I2C_SPI_Programming_singlecore\Workspace\I2C_SPI_GPIO\Debug/../src/i2c_program.c:443

	i2c_device_id(i2c_master,addr);//Device ID check
    1b8a:	fe744783          	lbu	a5,-25(s0)
    1b8e:	85be                	mv	a1,a5
    1b90:	fe842503          	lw	a0,-24(s0)
    1b94:	367d                	jal	1742 <i2c_device_id>
D:\Propel_Study\I2C_SPI_Programming_singlecore\Workspace\I2C_SPI_GPIO\Debug/../src/i2c_program.c:444
	i2c_isc_enable_sram(i2c_master,addr);//ISC Enable SRAM
    1b96:	fe744783          	lbu	a5,-25(s0)
    1b9a:	85be                	mv	a1,a5
    1b9c:	fe842503          	lw	a0,-24(s0)
    1ba0:	b55ff0ef          	jal	ra,16f4 <i2c_isc_enable_sram>
D:\Propel_Study\I2C_SPI_Programming_singlecore\Workspace\I2C_SPI_GPIO\Debug/../src/i2c_program.c:445
	i2c_isc_erase_sram(i2c_master,addr);//ISC Erase SRAM
    1ba4:	fe744783          	lbu	a5,-25(s0)
    1ba8:	85be                	mv	a1,a5
    1baa:	fe842503          	lw	a0,-24(s0)
    1bae:	af9ff0ef          	jal	ra,16a6 <i2c_isc_erase_sram>
D:\Propel_Study\I2C_SPI_Programming_singlecore\Workspace\I2C_SPI_GPIO\Debug/../src/i2c_program.c:446
	i2c_sr_read(i2c_master,addr);//Status Register Read
    1bb2:	fe744783          	lbu	a5,-25(s0)
    1bb6:	85be                	mv	a1,a5
    1bb8:	fe842503          	lw	a0,-24(s0)
    1bbc:	a69ff0ef          	jal	ra,1624 <i2c_sr_read>
D:\Propel_Study\I2C_SPI_Programming_singlecore\Workspace\I2C_SPI_GPIO\Debug/../src/i2c_program.c:447
	i2c_isc_enable_flash_XO2_XO3(i2c_master,addr);//ISC Enable Flash
    1bc0:	fe744783          	lbu	a5,-25(s0)
    1bc4:	85be                	mv	a1,a5
    1bc6:	fe842503          	lw	a0,-24(s0)
    1bca:	a0bff0ef          	jal	ra,15d4 <i2c_isc_enable_flash_XO2_XO3>
D:\Propel_Study\I2C_SPI_Programming_singlecore\Workspace\I2C_SPI_GPIO\Debug/../src/i2c_program.c:448
	i2c_isc_erase_flash_XO3D(gpio,i2c_master,addr,CFG);// ISC Erase Flash
    1bce:	fe744783          	lbu	a5,-25(s0)
    1bd2:	fd442683          	lw	a3,-44(s0)
    1bd6:	863e                	mv	a2,a5
    1bd8:	fe842583          	lw	a1,-24(s0)
    1bdc:	fec42503          	lw	a0,-20(s0)
    1be0:	88fff0ef          	jal	ra,146e <i2c_isc_erase_flash_XO3D>
D:\Propel_Study\I2C_SPI_Programming_singlecore\Workspace\I2C_SPI_GPIO\Debug/../src/i2c_program.c:449
	i2c_sr_read(i2c_master,addr);// Status Register Read
    1be4:	fe744783          	lbu	a5,-25(s0)
    1be8:	85be                	mv	a1,a5
    1bea:	fe842503          	lw	a0,-24(s0)
    1bee:	a37ff0ef          	jal	ra,1624 <i2c_sr_read>
D:\Propel_Study\I2C_SPI_Programming_singlecore\Workspace\I2C_SPI_GPIO\Debug/../src/i2c_program.c:450
	i2c_lsc_init_address_XO3D(i2c_master,addr,CFG);// Init Address CFGX
    1bf2:	fe744783          	lbu	a5,-25(s0)
    1bf6:	fd442603          	lw	a2,-44(s0)
    1bfa:	85be                	mv	a1,a5
    1bfc:	fe842503          	lw	a0,-24(s0)
    1c00:	f7cff0ef          	jal	ra,137c <i2c_lsc_init_address_XO3D>
D:\Propel_Study\I2C_SPI_Programming_singlecore\Workspace\I2C_SPI_GPIO\Debug/../src/i2c_program.c:451
	i2c_flash_program_spiflash(gpio,i2c_master,addr,spi_master,start_addr,end_addr);
    1c04:	fe744603          	lbu	a2,-25(s0)
    1c08:	fd842783          	lw	a5,-40(s0)
    1c0c:	fdc42703          	lw	a4,-36(s0)
    1c10:	fe042683          	lw	a3,-32(s0)
    1c14:	fe842583          	lw	a1,-24(s0)
    1c18:	fec42503          	lw	a0,-20(s0)
    1c1c:	3665                	jal	17c4 <i2c_flash_program_spiflash>
D:\Propel_Study\I2C_SPI_Programming_singlecore\Workspace\I2C_SPI_GPIO\Debug/../src/i2c_program.c:452
	i2c_lsc_init_address_XO3D(i2c_master,addr,CFG);//Init Address CFGX
    1c1e:	fe744783          	lbu	a5,-25(s0)
    1c22:	fd442603          	lw	a2,-44(s0)
    1c26:	85be                	mv	a1,a5
    1c28:	fe842503          	lw	a0,-24(s0)
    1c2c:	f50ff0ef          	jal	ra,137c <i2c_lsc_init_address_XO3D>
D:\Propel_Study\I2C_SPI_Programming_singlecore\Workspace\I2C_SPI_GPIO\Debug/../src/i2c_program.c:453
	i2c_flash_verify_spiflash(gpio,i2c_master,addr,spi_master,start_addr,end_addr);
    1c30:	fe744603          	lbu	a2,-25(s0)
    1c34:	fd842783          	lw	a5,-40(s0)
    1c38:	fdc42703          	lw	a4,-36(s0)
    1c3c:	fe042683          	lw	a3,-32(s0)
    1c40:	fe842583          	lw	a1,-24(s0)
    1c44:	fec42503          	lw	a0,-20(s0)
    1c48:	3969                	jal	18e2 <i2c_flash_verify_spiflash>
D:\Propel_Study\I2C_SPI_Programming_singlecore\Workspace\I2C_SPI_GPIO\Debug/../src/i2c_program.c:454
	i2c_lsc_init_address_XO3D(i2c_master,addr,CFG);//Init Address CFGX
    1c4a:	fe744783          	lbu	a5,-25(s0)
    1c4e:	fd442603          	lw	a2,-44(s0)
    1c52:	85be                	mv	a1,a5
    1c54:	fe842503          	lw	a0,-24(s0)
    1c58:	f24ff0ef          	jal	ra,137c <i2c_lsc_init_address_XO3D>
D:\Propel_Study\I2C_SPI_Programming_singlecore\Workspace\I2C_SPI_GPIO\Debug/../src/i2c_program.c:455
	i2c_program_done(i2c_master,addr);// Program Done bit
    1c5c:	fe744783          	lbu	a5,-25(s0)
    1c60:	85be                	mv	a1,a5
    1c62:	fe842503          	lw	a0,-24(s0)
    1c66:	ecaff0ef          	jal	ra,1330 <i2c_program_done>
D:\Propel_Study\I2C_SPI_Programming_singlecore\Workspace\I2C_SPI_GPIO\Debug/../src/i2c_program.c:456
	i2c_sr_read(i2c_master,addr);// Status Register Read
    1c6a:	fe744783          	lbu	a5,-25(s0)
    1c6e:	85be                	mv	a1,a5
    1c70:	fe842503          	lw	a0,-24(s0)
    1c74:	9b1ff0ef          	jal	ra,1624 <i2c_sr_read>
D:\Propel_Study\I2C_SPI_Programming_singlecore\Workspace\I2C_SPI_GPIO\Debug/../src/i2c_program.c:457
	i2c_isc_disable(i2c_master,addr);//Device Exits Programming mode*/
    1c78:	fe744783          	lbu	a5,-25(s0)
    1c7c:	85be                	mv	a1,a5
    1c7e:	fe842503          	lw	a0,-24(s0)
    1c82:	e68ff0ef          	jal	ra,12ea <i2c_isc_disable>
D:\Propel_Study\I2C_SPI_Programming_singlecore\Workspace\I2C_SPI_GPIO\Debug/../src/i2c_program.c:459
	//i2c_refresh(i2c_master,addr);//Device Exits Programming mode*/
}
    1c86:	0001                	nop
    1c88:	50b2                	lw	ra,44(sp)
    1c8a:	5422                	lw	s0,40(sp)
    1c8c:	6145                	addi	sp,sp,48
    1c8e:	8082                	ret

00001c90 <spiflash_deviceid>:
spiflash_deviceid():
D:\Propel_Study\I2C_SPI_Programming_singlecore\Workspace\I2C_SPI_GPIO\Debug/../src/i2c_program.c:461

void spiflash_deviceid(struct spim_instance *spi_master){
    1c90:	7179                	addi	sp,sp,-48
    1c92:	d606                	sw	ra,44(sp)
    1c94:	d422                	sw	s0,40(sp)
    1c96:	1800                	addi	s0,sp,48
    1c98:	fca42e23          	sw	a0,-36(s0)
D:\Propel_Study\I2C_SPI_Programming_singlecore\Workspace\I2C_SPI_GPIO\Debug/../src/i2c_program.c:463

	uint8_t cmd1_tx[1] = { 0x9E };
    1c9c:	f9e00793          	li	a5,-98
    1ca0:	fef40423          	sb	a5,-24(s0)
D:\Propel_Study\I2C_SPI_Programming_singlecore\Workspace\I2C_SPI_GPIO\Debug/../src/i2c_program.c:465
	uint8_t cmd1_rx[4];
    uint8_t status = spi_master_transfer_blocking(spi_master,
    1ca4:	fe440693          	addi	a3,s0,-28
    1ca8:	fe840793          	addi	a5,s0,-24
    1cac:	470d                	li	a4,3
    1cae:	4605                	li	a2,1
    1cb0:	85be                	mv	a1,a5
    1cb2:	fdc42503          	lw	a0,-36(s0)
    1cb6:	ee6fe0ef          	jal	ra,39c <spi_master_transfer_blocking>
    1cba:	87aa                	mv	a5,a0
    1cbc:	fef407a3          	sb	a5,-17(s0)
D:\Propel_Study\I2C_SPI_Programming_singlecore\Workspace\I2C_SPI_GPIO\Debug/../src/i2c_program.c:472
                                                  1,
                                                  cmd1_rx,  // Data IN
                                                  3);

        // Read JEDEC ID
        uint8_t manufacturer_id = (uint8_t)cmd1_rx[0];
    1cc0:	fe444783          	lbu	a5,-28(s0)
    1cc4:	fef40723          	sb	a5,-18(s0)
D:\Propel_Study\I2C_SPI_Programming_singlecore\Workspace\I2C_SPI_GPIO\Debug/../src/i2c_program.c:473
        uint8_t memory_type     = (uint8_t)cmd1_rx[1];
    1cc8:	fe544783          	lbu	a5,-27(s0)
    1ccc:	fef406a3          	sb	a5,-19(s0)
D:\Propel_Study\I2C_SPI_Programming_singlecore\Workspace\I2C_SPI_GPIO\Debug/../src/i2c_program.c:474
        uint8_t capacity        = (uint8_t)cmd1_rx[2];
    1cd0:	fe644783          	lbu	a5,-26(s0)
    1cd4:	fef40623          	sb	a5,-20(s0)
D:\Propel_Study\I2C_SPI_Programming_singlecore\Workspace\I2C_SPI_GPIO\Debug/../src/i2c_program.c:475
        printf("JEDEC ID: %02X %02X %02X\n", manufacturer_id, memory_type, capacity);
    1cd8:	fee44783          	lbu	a5,-18(s0)
    1cdc:	fed44703          	lbu	a4,-19(s0)
    1ce0:	fec44683          	lbu	a3,-20(s0)
    1ce4:	863a                	mv	a2,a4
    1ce6:	85be                	mv	a1,a5
    1ce8:	678d                	lui	a5,0x3
    1cea:	a8478513          	addi	a0,a5,-1404 # 2a84 <__iob+0x41c>
    1cee:	249d                	jal	1f54 <printf>
D:\Propel_Study\I2C_SPI_Programming_singlecore\Workspace\I2C_SPI_GPIO\Debug/../src/i2c_program.c:479



}
    1cf0:	0001                	nop
    1cf2:	50b2                	lw	ra,44(sp)
    1cf4:	5422                	lw	s0,40(sp)
    1cf6:	6145                	addi	sp,sp,48
    1cf8:	8082                	ret

00001cfa <lscc_uart_putc>:
lscc_uart_putc():
D:\Propel_Study\I2C_SPI_Programming_singlecore\Workspace\I2C_SPI_GPIO\Debug/../src/main.c:63
struct i2cm_instance i2c_master_test;
struct uart_instance uart_core_uart;
struct spim_instance spi_master_test;

static int lscc_uart_putc(char c, FILE *file)
{
    1cfa:	7179                	addi	sp,sp,-48
    1cfc:	d606                	sw	ra,44(sp)
    1cfe:	d422                	sw	s0,40(sp)
    1d00:	1800                	addi	s0,sp,48
    1d02:	87aa                	mv	a5,a0
    1d04:	fcb42c23          	sw	a1,-40(s0)
    1d08:	fcf40fa3          	sb	a5,-33(s0)
D:\Propel_Study\I2C_SPI_Programming_singlecore\Workspace\I2C_SPI_GPIO\Debug/../src/main.c:65
#ifdef LSCC_STDIO_UART_APB
		int ret = EOF;
    1d0c:	57fd                	li	a5,-1
    1d0e:	fef42623          	sw	a5,-20(s0)
D:\Propel_Study\I2C_SPI_Programming_singlecore\Workspace\I2C_SPI_GPIO\Debug/../src/main.c:66
		ret = uart_putc(&uart_core_uart, c);
    1d12:	fdf44783          	lbu	a5,-33(s0)
    1d16:	85be                	mv	a1,a5
    1d18:	8f418513          	addi	a0,gp,-1804 # 2bdc <uart_core_uart>
    1d1c:	bfefe0ef          	jal	ra,11a <uart_putc>
    1d20:	87aa                	mv	a5,a0
    1d22:	fef42623          	sw	a5,-20(s0)
D:\Propel_Study\I2C_SPI_Programming_singlecore\Workspace\I2C_SPI_GPIO\Debug/../src/main.c:67
		if (c == '\n' && ret == 0)
    1d26:	fdf40703          	lb	a4,-33(s0)
    1d2a:	47a9                	li	a5,10
    1d2c:	00f71d63          	bne	a4,a5,1d46 <lscc_uart_putc+0x4c>
D:\Propel_Study\I2C_SPI_Programming_singlecore\Workspace\I2C_SPI_GPIO\Debug/../src/main.c:67 (discriminator 1)
    1d30:	fec42783          	lw	a5,-20(s0)
    1d34:	eb89                	bnez	a5,1d46 <lscc_uart_putc+0x4c>
D:\Propel_Study\I2C_SPI_Programming_singlecore\Workspace\I2C_SPI_GPIO\Debug/../src/main.c:68
			ret = uart_putc(&uart_core_uart, '\r');
    1d36:	45b5                	li	a1,13
    1d38:	8f418513          	addi	a0,gp,-1804 # 2bdc <uart_core_uart>
    1d3c:	bdefe0ef          	jal	ra,11a <uart_putc>
    1d40:	87aa                	mv	a5,a0
    1d42:	fef42623          	sw	a5,-20(s0)
D:\Propel_Study\I2C_SPI_Programming_singlecore\Workspace\I2C_SPI_GPIO\Debug/../src/main.c:69
		return ret;
    1d46:	fec42783          	lw	a5,-20(s0)
D:\Propel_Study\I2C_SPI_Programming_singlecore\Workspace\I2C_SPI_GPIO\Debug/../src/main.c:73
#else
		return EOF;
#endif
}
    1d4a:	853e                	mv	a0,a5
    1d4c:	50b2                	lw	ra,44(sp)
    1d4e:	5422                	lw	s0,40(sp)
    1d50:	6145                	addi	sp,sp,48
    1d52:	8082                	ret

00001d54 <lscc_uart_getc>:
lscc_uart_getc():
D:\Propel_Study\I2C_SPI_Programming_singlecore\Workspace\I2C_SPI_GPIO\Debug/../src/main.c:77


static int lscc_uart_getc(FILE *file)
{
    1d54:	1101                	addi	sp,sp,-32
    1d56:	ce22                	sw	s0,28(sp)
    1d58:	1000                	addi	s0,sp,32
    1d5a:	fea42623          	sw	a0,-20(s0)
D:\Propel_Study\I2C_SPI_Programming_singlecore\Workspace\I2C_SPI_GPIO\Debug/../src/main.c:79
	(void) file;
	return EOF;
    1d5e:	57fd                	li	a5,-1
D:\Propel_Study\I2C_SPI_Programming_singlecore\Workspace\I2C_SPI_GPIO\Debug/../src/main.c:80
}
    1d60:	853e                	mv	a0,a5
    1d62:	4472                	lw	s0,28(sp)
    1d64:	6105                	addi	sp,sp,32
    1d66:	8082                	ret

00001d68 <lscc_uart_flush>:
lscc_uart_flush():
D:\Propel_Study\I2C_SPI_Programming_singlecore\Workspace\I2C_SPI_GPIO\Debug/../src/main.c:84


static int lscc_uart_flush(FILE *file)
{
    1d68:	1101                	addi	sp,sp,-32
    1d6a:	ce22                	sw	s0,28(sp)
    1d6c:	1000                	addi	s0,sp,32
    1d6e:	fea42623          	sw	a0,-20(s0)
D:\Propel_Study\I2C_SPI_Programming_singlecore\Workspace\I2C_SPI_GPIO\Debug/../src/main.c:86
	(void) file;
	return 0;
    1d72:	4781                	li	a5,0
D:\Propel_Study\I2C_SPI_Programming_singlecore\Workspace\I2C_SPI_GPIO\Debug/../src/main.c:87
}
    1d74:	853e                	mv	a0,a5
    1d76:	4472                	lw	s0,28(sp)
    1d78:	6105                	addi	sp,sp,32
    1d7a:	8082                	ret

00001d7c <main>:
main():
D:\Propel_Study\I2C_SPI_Programming_singlecore\Workspace\I2C_SPI_GPIO\Debug/../src/main.c:90


int main(void) {
    1d7c:	7139                	addi	sp,sp,-64
    1d7e:	de06                	sw	ra,60(sp)
    1d80:	dc22                	sw	s0,56(sp)
    1d82:	0080                	addi	s0,sp,64
    1d84:	81010113          	addi	sp,sp,-2032
D:\Propel_Study\I2C_SPI_Programming_singlecore\Workspace\I2C_SPI_GPIO\Debug/../src/main.c:107
	delayMS(1000);
#endif
#define XO3D_ADDR  0x50        // 7-bit I2C address of XO3D
#define XO3_ADDR 0x40
	//initialize UART
	uart_init(&uart_core_uart, UART0_INST_BASE_ADDR, CPU_FREQUENCY, UART0_INST_BAUD_RATE, 1, 8);
    1d88:	47a1                	li	a5,8
    1d8a:	4705                	li	a4,1
    1d8c:	66f1                	lui	a3,0x1c
    1d8e:	20068693          	addi	a3,a3,512 # 1c200 <_stack_start+0x18b90>
    1d92:	055d5637          	lui	a2,0x55d5
    1d96:	a8060613          	addi	a2,a2,-1408 # 55d4a80 <_stack_start+0x55d1410>
    1d9a:	000405b7          	lui	a1,0x40
    1d9e:	8f418513          	addi	a0,gp,-1804 # 2bdc <uart_core_uart>
    1da2:	aeefe0ef          	jal	ra,90 <uart_init>
D:\Propel_Study\I2C_SPI_Programming_singlecore\Workspace\I2C_SPI_GPIO\Debug/../src/main.c:108
	iob_init(lscc_uart_putc, lscc_uart_getc, lscc_uart_flush);
    1da6:	6789                	lui	a5,0x2
    1da8:	d6878613          	addi	a2,a5,-664 # 1d68 <lscc_uart_flush>
    1dac:	6789                	lui	a5,0x2
    1dae:	d5478593          	addi	a1,a5,-684 # 1d54 <lscc_uart_getc>
    1db2:	6789                	lui	a5,0x2
    1db4:	cfa78513          	addi	a0,a5,-774 # 1cfa <lscc_uart_putc>
    1db8:	987fe0ef          	jal	ra,73e <iob_init>
D:\Propel_Study\I2C_SPI_Programming_singlecore\Workspace\I2C_SPI_GPIO\Debug/../src/main.c:110

	printf("%s:Hello RISC-V world!\n",CPU_INST_NAME);
    1dbc:	678d                	lui	a5,0x3
    1dbe:	aa078593          	addi	a1,a5,-1376 # 2aa0 <__iob+0x438>
    1dc2:	678d                	lui	a5,0x3
    1dc4:	aac78513          	addi	a0,a5,-1364 # 2aac <__iob+0x444>
    1dc8:	2271                	jal	1f54 <printf>
D:\Propel_Study\I2C_SPI_Programming_singlecore\Workspace\I2C_SPI_GPIO\Debug/../src/main.c:113

	/*I2c Initialize*/
	i2c_master_config(&i2c_master_test,I2CM_ADDR_7BIT_MODE,INT_MODE,I2C_MASTER_INST_PRESCALER);
    1dca:	46d1                	li	a3,20
    1dcc:	4601                	li	a2,0
    1dce:	459d                	li	a1,7
    1dd0:	8e018513          	addi	a0,gp,-1824 # 2bc8 <i2c_master_test>
    1dd4:	c67fe0ef          	jal	ra,a3a <i2c_master_config>
D:\Propel_Study\I2C_SPI_Programming_singlecore\Workspace\I2C_SPI_GPIO\Debug/../src/main.c:114
	i2c_master_init(&i2c_master_test, I2C_MASTER_INST_BASE_ADDR);
    1dd8:	000417b7          	lui	a5,0x41
    1ddc:	80078593          	addi	a1,a5,-2048 # 40800 <_stack_start+0x3d190>
    1de0:	8e018513          	addi	a0,gp,-1824 # 2bc8 <i2c_master_test>
    1de4:	c03fe0ef          	jal	ra,9e6 <i2c_master_init>
D:\Propel_Study\I2C_SPI_Programming_singlecore\Workspace\I2C_SPI_GPIO\Debug/../src/main.c:120


	/*SPI Master initialize*/
	uint32_t tx_buffer[SPI_MASTER_INST_FIFO_DEPTH];
	uint32_t rx_buffer[SPI_MASTER_INST_FIFO_DEPTH];
	spi_master_config(&spi_master_test,
    1de8:	c002                	sw	zero,0(sp)
    1dea:	4881                	li	a7,0
    1dec:	4801                	li	a6,0
    1dee:	4781                	li	a5,0
    1df0:	4701                	li	a4,0
    1df2:	4681                	li	a3,0
    1df4:	460d                	li	a2,3
    1df6:	45a1                	li	a1,8
    1df8:	94c18513          	addi	a0,gp,-1716 # 2c34 <spi_master_test>
    1dfc:	c12fe0ef          	jal	ra,20e <spi_master_config>
D:\Propel_Study\I2C_SPI_Programming_singlecore\Workspace\I2C_SPI_GPIO\Debug/../src/main.c:130
	    SPI_MASTER_INST_CPHA,           // clk_phase = 0
	    SPI_MASTER_INST_SSNP,           // ssnp = 0
	    SPI_MASTER_INST_ONLY_WRITE,     // only_write = 0 (full duplex)
	    SPI_MASTER_INST_SPI_EN          // spi_en = 0 (disabled)
	);
	spi_master_init(&spi_master_test,SPI_MASTER_INST_BASE_ADDR,SPI_MASTER_INST_SLAVE_COUNT,tx_buffer,rx_buffer,SPI_MASTER_INST_PRESCALER,SPI_MASTER_INST_RX_FIFO_AF_FLAG ,SPI_MASTER_INST_FIFO_DEPTH, SPI_MASTER_INST_FIFO_DEPTH);
    1e00:	77fd                	lui	a5,0xfffff
    1e02:	7f878793          	addi	a5,a5,2040 # fffff7f8 <_stack_start+0xffffc188>
    1e06:	ff040713          	addi	a4,s0,-16
    1e0a:	973e                	add	a4,a4,a5
    1e0c:	be840693          	addi	a3,s0,-1048
    1e10:	10000793          	li	a5,256
    1e14:	c03e                	sw	a5,0(sp)
    1e16:	10000893          	li	a7,256
    1e1a:	4851                	li	a6,20
    1e1c:	478d                	li	a5,3
    1e1e:	4605                	li	a2,1
    1e20:	000415b7          	lui	a1,0x41
    1e24:	c0058593          	addi	a1,a1,-1024 # 40c00 <_stack_start+0x3d590>
    1e28:	94c18513          	addi	a0,gp,-1716 # 2c34 <spi_master_test>
    1e2c:	b50fe0ef          	jal	ra,17c <spi_master_init>
D:\Propel_Study\I2C_SPI_Programming_singlecore\Workspace\I2C_SPI_GPIO\Debug/../src/main.c:133

	/*GPIO initialize*/
	gpio_init(&gpio_test, GPIO0_INST_BASE_ADDR, GPIO0_INST_LINES_NUM,0x01);
    1e30:	4685                	li	a3,1
    1e32:	4621                	li	a2,8
    1e34:	000407b7          	lui	a5,0x40
    1e38:	40078593          	addi	a1,a5,1024 # 40400 <_stack_start+0x3cd90>
    1e3c:	678d                	lui	a5,0x3
    1e3e:	b4078513          	addi	a0,a5,-1216 # 2b40 <gpio_test>
    1e42:	b86ff0ef          	jal	ra,11c8 <gpio_init>
D:\Propel_Study\I2C_SPI_Programming_singlecore\Workspace\I2C_SPI_GPIO\Debug/../src/main.c:137



	int CFG=0;
    1e46:	fe042623          	sw	zero,-20(s0)
D:\Propel_Study\I2C_SPI_Programming_singlecore\Workspace\I2C_SPI_GPIO\Debug/../src/main.c:141
	while (true) {


		spiflash_deviceid(&spi_master_test);
    1e4a:	94c18513          	addi	a0,gp,-1716 # 2c34 <spi_master_test>
    1e4e:	3589                	jal	1c90 <spiflash_deviceid>
D:\Propel_Study\I2C_SPI_Programming_singlecore\Workspace\I2C_SPI_GPIO\Debug/../src/main.c:142
	    i2c_device_id(&i2c_master_test,XO3_ADDR);
    1e50:	04000593          	li	a1,64
    1e54:	8e018513          	addi	a0,gp,-1824 # 2bc8 <i2c_master_test>
    1e58:	8ebff0ef          	jal	ra,1742 <i2c_device_id>
D:\Propel_Study\I2C_SPI_Programming_singlecore\Workspace\I2C_SPI_GPIO\Debug/../src/main.c:143
	    i2c_device_id(&i2c_master_test,XO3D_ADDR);
    1e5c:	05000593          	li	a1,80
    1e60:	8e018513          	addi	a0,gp,-1824 # 2bc8 <i2c_master_test>
    1e64:	8dfff0ef          	jal	ra,1742 <i2c_device_id>
D:\Propel_Study\I2C_SPI_Programming_singlecore\Workspace\I2C_SPI_GPIO\Debug/../src/main.c:144
	    int CFG=1;
    1e68:	4785                	li	a5,1
    1e6a:	fef42423          	sw	a5,-24(s0)
D:\Propel_Study\I2C_SPI_Programming_singlecore\Workspace\I2C_SPI_GPIO\Debug/../src/main.c:145
	    i2c_program_XO2_XO3_spiflash(&gpio_test,&i2c_master_test,XO3_ADDR,&spi_master_test, 0x210000,0x216730);
    1e6e:	002167b7          	lui	a5,0x216
    1e72:	73078793          	addi	a5,a5,1840 # 216730 <_stack_start+0x2130c0>
    1e76:	00210737          	lui	a4,0x210
    1e7a:	94c18693          	addi	a3,gp,-1716 # 2c34 <spi_master_test>
    1e7e:	04000613          	li	a2,64
    1e82:	8e018593          	addi	a1,gp,-1824 # 2bc8 <i2c_master_test>
    1e86:	650d                	lui	a0,0x3
    1e88:	b4050513          	addi	a0,a0,-1216 # 2b40 <gpio_test>
    1e8c:	b8fff0ef          	jal	ra,1a1a <i2c_program_XO2_XO3_spiflash>
D:\Propel_Study\I2C_SPI_Programming_singlecore\Workspace\I2C_SPI_GPIO\Debug/../src/main.c:146
	    i2c_program_XO3D_spiflash(&gpio_test,&i2c_master_test,XO3D_ADDR,&spi_master_test, 0x230000,0x2389E0,CFG);
    1e90:	fe842803          	lw	a6,-24(s0)
    1e94:	002397b7          	lui	a5,0x239
    1e98:	9e078793          	addi	a5,a5,-1568 # 2389e0 <_stack_start+0x235370>
    1e9c:	00230737          	lui	a4,0x230
    1ea0:	94c18693          	addi	a3,gp,-1716 # 2c34 <spi_master_test>
    1ea4:	05000613          	li	a2,80
    1ea8:	8e018593          	addi	a1,gp,-1824 # 2bc8 <i2c_master_test>
    1eac:	650d                	lui	a0,0x3
    1eae:	b4050513          	addi	a0,a0,-1216 # 2b40 <gpio_test>
    1eb2:	3951                	jal	1b46 <i2c_program_XO3D_spiflash>
D:\Propel_Study\I2C_SPI_Programming_singlecore\Workspace\I2C_SPI_GPIO\Debug/../src/main.c:148

			exit(0);
    1eb4:	4501                	li	a0,0
    1eb6:	28a9                	jal	1f10 <exit>

00001eb8 <delayMS>:
delayMS():
D:\Propel_Study\I2C_SPI_Programming_singlecore\Workspace\I2C_SPI_GPIO\Debug/../src/utils.c:45
// ------------------------------------------------------------------

#include "utils.h"
#include "sys_platform.h"

void delayMS(uint32_t ms) {
    1eb8:	7179                	addi	sp,sp,-48
    1eba:	d622                	sw	s0,44(sp)
    1ebc:	1800                	addi	s0,sp,48
    1ebe:	fca42e23          	sw	a0,-36(s0)
D:\Propel_Study\I2C_SPI_Programming_singlecore\Workspace\I2C_SPI_GPIO\Debug/../src/utils.c:47
	uint32_t val, count;
	timer_reg_p base = (timer_reg_p) TIMER0_INST_BASE_ADDR;
    1ec2:	77c1                	lui	a5,0xffff0
    1ec4:	40078793          	addi	a5,a5,1024 # ffff0400 <_stack_start+0xfffecd90>
    1ec8:	fef42623          	sw	a5,-20(s0)
D:\Propel_Study\I2C_SPI_Programming_singlecore\Workspace\I2C_SPI_GPIO\Debug/../src/utils.c:49

	count = 1 + ms * SYSCLK_KHZ;	// to avoid overflow, dont allow delay too long time
    1ecc:	fdc42703          	lw	a4,-36(s0)
    1ed0:	67d9                	lui	a5,0x16
    1ed2:	f9078793          	addi	a5,a5,-112 # 15f90 <_stack_start+0x12920>
    1ed6:	02f707b3          	mul	a5,a4,a5
    1eda:	0785                	addi	a5,a5,1
    1edc:	fef42423          	sw	a5,-24(s0)
D:\Propel_Study\I2C_SPI_Programming_singlecore\Workspace\I2C_SPI_GPIO\Debug/../src/utils.c:51

	base->cnt_l = 1;
    1ee0:	fec42783          	lw	a5,-20(s0)
    1ee4:	4705                	li	a4,1
    1ee6:	c398                	sw	a4,0(a5)
D:\Propel_Study\I2C_SPI_Programming_singlecore\Workspace\I2C_SPI_GPIO\Debug/../src/utils.c:52
	base->cnt_h = 0;
    1ee8:	fec42783          	lw	a5,-20(s0)
    1eec:	0007a223          	sw	zero,4(a5)
D:\Propel_Study\I2C_SPI_Programming_singlecore\Workspace\I2C_SPI_GPIO\Debug/../src/utils.c:57 (discriminator 1)
//	base->cmp_l = count + 1;
//	base->cmp_h = 0;

	do {
		val = base->cnt_l;
    1ef0:	fec42783          	lw	a5,-20(s0)
    1ef4:	439c                	lw	a5,0(a5)
    1ef6:	fef42223          	sw	a5,-28(s0)
D:\Propel_Study\I2C_SPI_Programming_singlecore\Workspace\I2C_SPI_GPIO\Debug/../src/utils.c:58 (discriminator 1)
	} while (val < count);
    1efa:	fe442703          	lw	a4,-28(s0)
    1efe:	fe842783          	lw	a5,-24(s0)
    1f02:	fef767e3          	bltu	a4,a5,1ef0 <delayMS+0x38>
D:\Propel_Study\I2C_SPI_Programming_singlecore\Workspace\I2C_SPI_GPIO\Debug/../src/utils.c:59
}
    1f06:	0001                	nop
    1f08:	0001                	nop
    1f0a:	5432                	lw	s0,44(sp)
    1f0c:	6145                	addi	sp,sp,48
    1f0e:	8082                	ret

00001f10 <exit>:
exit():
    1f10:	6f4002ef          	jal	t0,2604 <__riscv_save_0>
    1f14:	00000793          	li	a5,0
    1f18:	842a                	mv	s0,a0
    1f1a:	c791                	beqz	a5,1f26 <exit+0x16>
    1f1c:	4581                	li	a1,0
    1f1e:	00000097          	auipc	ra,0x0
    1f22:	000000e7          	jalr	zero # 0 <_ftext>
    1f26:	2589                	jal	2568 <__libc_fini_array>
    1f28:	8522                	mv	a0,s0
    1f2a:	f06fe0ef          	jal	ra,630 <_exit>

00001f2e <memcmp>:
memcmp():
    1f2e:	4701                	li	a4,0
    1f30:	00e61463          	bne	a2,a4,1f38 <memcmp+0xa>
    1f34:	4501                	li	a0,0
    1f36:	8082                	ret
    1f38:	00e507b3          	add	a5,a0,a4
    1f3c:	0705                	addi	a4,a4,1
    1f3e:	00e586b3          	add	a3,a1,a4
    1f42:	0007c783          	lbu	a5,0(a5)
    1f46:	fff6c683          	lbu	a3,-1(a3)
    1f4a:	fed783e3          	beq	a5,a3,1f30 <memcmp+0x2>
    1f4e:	40d78533          	sub	a0,a5,a3
    1f52:	8082                	ret

00001f54 <printf>:
printf():
    1f54:	7139                	addi	sp,sp,-64
    1f56:	da3e                	sw	a5,52(sp)
    1f58:	6789                	lui	a5,0x2
    1f5a:	d22e                	sw	a1,36(sp)
    1f5c:	85aa                	mv	a1,a0
    1f5e:	66c7a503          	lw	a0,1644(a5) # 266c <__iob+0x4>
    1f62:	d432                	sw	a2,40(sp)
    1f64:	1050                	addi	a2,sp,36
    1f66:	ce06                	sw	ra,28(sp)
    1f68:	d636                	sw	a3,44(sp)
    1f6a:	d83a                	sw	a4,48(sp)
    1f6c:	dc42                	sw	a6,56(sp)
    1f6e:	de46                	sw	a7,60(sp)
    1f70:	c632                	sw	a2,12(sp)
    1f72:	2049                	jal	1ff4 <vfprintf>
    1f74:	40f2                	lw	ra,28(sp)
    1f76:	6121                	addi	sp,sp,64
    1f78:	8082                	ret

00001f7a <puts>:
puts():
    1f7a:	68a002ef          	jal	t0,2604 <__riscv_save_0>
    1f7e:	6789                	lui	a5,0x2
    1f80:	66c7a583          	lw	a1,1644(a5) # 266c <__iob+0x4>
    1f84:	1141                	addi	sp,sp,-16
    1f86:	842a                	mv	s0,a0
    1f88:	0045c783          	lbu	a5,4(a1)
    1f8c:	4481                	li	s1,0
    1f8e:	8b89                	andi	a5,a5,2
    1f90:	eb91                	bnez	a5,1fa4 <puts+0x2a>
    1f92:	54fd                	li	s1,-1
    1f94:	8526                	mv	a0,s1
    1f96:	0141                	addi	sp,sp,16
    1f98:	ad41                	j	2628 <__riscv_restore_0>
    1f9a:	c62e                	sw	a1,12(sp)
    1f9c:	9782                	jalr	a5
    1f9e:	45b2                	lw	a1,12(sp)
    1fa0:	c111                	beqz	a0,1fa4 <puts+0x2a>
    1fa2:	54fd                	li	s1,-1
    1fa4:	00044503          	lbu	a0,0(s0)
    1fa8:	0405                	addi	s0,s0,1
    1faa:	459c                	lw	a5,8(a1)
    1fac:	f57d                	bnez	a0,1f9a <puts+0x20>
    1fae:	4529                	li	a0,10
    1fb0:	9782                	jalr	a5
    1fb2:	d16d                	beqz	a0,1f94 <puts+0x1a>
    1fb4:	bff9                	j	1f92 <puts+0x18>

00001fb6 <__ultoa_invert>:
__ultoa_invert():
    1fb6:	20067793          	andi	a5,a2,512
    1fba:	872a                	mv	a4,a0
    1fbc:	852e                	mv	a0,a1
    1fbe:	02700593          	li	a1,39
    1fc2:	c781                	beqz	a5,1fca <__ultoa_invert+0x14>
    1fc4:	dff67613          	andi	a2,a2,-513
    1fc8:	459d                	li	a1,7
    1fca:	4825                	li	a6,9
    1fcc:	86ba                	mv	a3,a4
    1fce:	02c6f7b3          	remu	a5,a3,a2
    1fd2:	0ff7f793          	zext.b	a5,a5
    1fd6:	02c75733          	divu	a4,a4,a2
    1fda:	00f87563          	bgeu	a6,a5,1fe4 <__ultoa_invert+0x2e>
    1fde:	97ae                	add	a5,a5,a1
    1fe0:	0ff7f793          	zext.b	a5,a5
    1fe4:	0505                	addi	a0,a0,1
    1fe6:	03078793          	addi	a5,a5,48
    1fea:	fef50fa3          	sb	a5,-1(a0)
    1fee:	fcc6ffe3          	bgeu	a3,a2,1fcc <__ultoa_invert+0x16>
    1ff2:	8082                	ret

00001ff4 <vfprintf>:
vfprintf():
    1ff4:	5e0002ef          	jal	t0,25d4 <__riscv_save_12>
    1ff8:	00454783          	lbu	a5,4(a0)
    1ffc:	1101                	addi	sp,sp,-32
    1ffe:	597d                	li	s2,-1
    2000:	8b89                	andi	a5,a5,2
    2002:	48078263          	beqz	a5,2486 <vfprintf+0x492>
    2006:	67c1                	lui	a5,0x10
    2008:	17fd                	addi	a5,a5,-1
    200a:	8aaa                	mv	s5,a0
    200c:	8a32                	mv	s4,a2
    200e:	4901                	li	s2,0
    2010:	01410c13          	addi	s8,sp,20
    2014:	6c85                	lui	s9,0x1
    2016:	c43e                	sw	a5,8(sp)
    2018:	0005c483          	lbu	s1,0(a1)
    201c:	46048563          	beqz	s1,2486 <vfprintf+0x492>
    2020:	02500793          	li	a5,37
    2024:	00158b93          	addi	s7,a1,1
    2028:	00f49863          	bne	s1,a5,2038 <vfprintf+0x44>
    202c:	0015c483          	lbu	s1,1(a1)
    2030:	00258b93          	addi	s7,a1,2
    2034:	00f49763          	bne	s1,a5,2042 <vfprintf+0x4e>
    2038:	0905                	addi	s2,s2,1
    203a:	85d6                	mv	a1,s5
    203c:	8526                	mv	a0,s1
    203e:	2b9d                	jal	25b4 <fputc>
    2040:	a295                	j	21a4 <vfprintf+0x1b0>
    2042:	4981                	li	s3,0
    2044:	4b01                	li	s6,0
    2046:	4401                	li	s0,0
    2048:	467d                	li	a2,31
    204a:	06c00593          	li	a1,108
    204e:	06800513          	li	a0,104
    2052:	06a00813          	li	a6,106
    2056:	07400893          	li	a7,116
    205a:	4325                	li	t1,9
    205c:	02a00e13          	li	t3,42
    2060:	02e00e93          	li	t4,46
    2064:	4729                	li	a4,10
    2066:	07f00f13          	li	t5,127
    206a:	02b00693          	li	a3,43
    206e:	02d00f93          	li	t6,45
    2072:	03000293          	li	t0,48
    2076:	02000393          	li	t2,32
    207a:	02300d93          	li	s11,35
    207e:	04866d63          	bltu	a2,s0,20d8 <vfprintf+0xe4>
    2082:	04d48063          	beq	s1,a3,20c2 <vfprintf+0xce>
    2086:	0296e363          	bltu	a3,s1,20ac <vfprintf+0xb8>
    208a:	02748e63          	beq	s1,t2,20c6 <vfprintf+0xd2>
    208e:	05b48263          	beq	s1,s11,20d2 <vfprintf+0xde>
    2092:	fd048793          	addi	a5,s1,-48
    2096:	0ff7f793          	zext.b	a5,a5
    209a:	04f36c63          	bltu	t1,a5,20f2 <vfprintf+0xfe>
    209e:	04047493          	andi	s1,s0,64
    20a2:	c0b1                	beqz	s1,20e6 <vfprintf+0xf2>
    20a4:	02e989b3          	mul	s3,s3,a4
    20a8:	99be                	add	s3,s3,a5
    20aa:	a039                	j	20b8 <vfprintf+0xc4>
    20ac:	03f48063          	beq	s1,t6,20cc <vfprintf+0xd8>
    20b0:	fe5491e3          	bne	s1,t0,2092 <vfprintf+0x9e>
    20b4:	00146413          	ori	s0,s0,1
    20b8:	000bc483          	lbu	s1,0(s7)
    20bc:	0b85                	addi	s7,s7,1
    20be:	f0e1                	bnez	s1,207e <vfprintf+0x8a>
    20c0:	a069                	j	214a <vfprintf+0x156>
    20c2:	00246413          	ori	s0,s0,2
    20c6:	00446413          	ori	s0,s0,4
    20ca:	b7fd                	j	20b8 <vfprintf+0xc4>
    20cc:	00846413          	ori	s0,s0,8
    20d0:	b7e5                	j	20b8 <vfprintf+0xc4>
    20d2:	01046413          	ori	s0,s0,16
    20d6:	b7cd                	j	20b8 <vfprintf+0xc4>
    20d8:	fa8f7de3          	bgeu	t5,s0,2092 <vfprintf+0x9e>
    20dc:	04b49763          	bne	s1,a1,212a <vfprintf+0x136>
    20e0:	08046413          	ori	s0,s0,128
    20e4:	bfd1                	j	20b8 <vfprintf+0xc4>
    20e6:	02eb0b33          	mul	s6,s6,a4
    20ea:	02046413          	ori	s0,s0,32
    20ee:	9b3e                	add	s6,s6,a5
    20f0:	b7e1                	j	20b8 <vfprintf+0xc4>
    20f2:	03c49363          	bne	s1,t3,2118 <vfprintf+0x124>
    20f6:	04047493          	andi	s1,s0,64
    20fa:	000a2783          	lw	a5,0(s4)
    20fe:	0a11                	addi	s4,s4,4
    2100:	e4c5                	bnez	s1,21a8 <vfprintf+0x1b4>
    2102:	0007c663          	bltz	a5,210e <vfprintf+0x11a>
    2106:	02046413          	ori	s0,s0,32
    210a:	8b3e                	mv	s6,a5
    210c:	b775                	j	20b8 <vfprintf+0xc4>
    210e:	40f00b33          	neg	s6,a5
    2112:	02846413          	ori	s0,s0,40
    2116:	b74d                	j	20b8 <vfprintf+0xc4>
    2118:	fdd492e3          	bne	s1,t4,20dc <vfprintf+0xe8>
    211c:	04047793          	andi	a5,s0,64
    2120:	36079363          	bnez	a5,2486 <vfprintf+0x492>
    2124:	04046413          	ori	s0,s0,64
    2128:	bf41                	j	20b8 <vfprintf+0xc4>
    212a:	00a49a63          	bne	s1,a0,213e <vfprintf+0x14a>
    212e:	10047793          	andi	a5,s0,256
    2132:	c399                	beqz	a5,2138 <vfprintf+0x144>
    2134:	20046413          	ori	s0,s0,512
    2138:	10046413          	ori	s0,s0,256
    213c:	bfb5                	j	20b8 <vfprintf+0xc4>
    213e:	0ef4f793          	andi	a5,s1,239
    2142:	f7078be3          	beq	a5,a6,20b8 <vfprintf+0xc4>
    2146:	f71489e3          	beq	s1,a7,20b8 <vfprintf+0xc4>
    214a:	0009d763          	bgez	s3,2158 <vfprintf+0x164>
    214e:	fbf47413          	andi	s0,s0,-65
    2152:	0442                	slli	s0,s0,0x10
    2154:	8041                	srli	s0,s0,0x10
    2156:	4981                	li	s3,0
    2158:	0204e793          	ori	a5,s1,32
    215c:	f9b78713          	addi	a4,a5,-101 # ff9b <_stack_start+0xc92b>
    2160:	0ff77713          	zext.b	a4,a4
    2164:	4689                	li	a3,2
    2166:	00e6f663          	bgeu	a3,a4,2172 <vfprintf+0x17e>
    216a:	06100713          	li	a4,97
    216e:	02e79f63          	bne	a5,a4,21ac <vfprintf+0x1b8>
    2172:	007a0493          	addi	s1,s4,7
    2176:	98e1                	andi	s1,s1,-8
    2178:	678d                	lui	a5,0x3
    217a:	04a1                	addi	s1,s1,8
    217c:	4a1d                	li	s4,7
    217e:	acc78d93          	addi	s11,a5,-1332 # 2acc <__iob+0x464>
    2182:	8821                	andi	s0,s0,8
    2184:	c051                	beqz	s0,2208 <vfprintf+0x214>
    2186:	414b0b33          	sub	s6,s6,s4
    218a:	014d8433          	add	s0,s11,s4
    218e:	088d9063          	bne	s11,s0,220e <vfprintf+0x21a>
    2192:	9952                	add	s2,s2,s4
    2194:	845a                	mv	s0,s6
    2196:	2e804263          	bgtz	s0,247a <vfprintf+0x486>
    219a:	000b5363          	bgez	s6,21a0 <vfprintf+0x1ac>
    219e:	4b01                	li	s6,0
    21a0:	995a                	add	s2,s2,s6
    21a2:	8a26                	mv	s4,s1
    21a4:	85de                	mv	a1,s7
    21a6:	bd8d                	j	2018 <vfprintf+0x24>
    21a8:	89be                	mv	s3,a5
    21aa:	b739                	j	20b8 <vfprintf+0xc4>
    21ac:	06300713          	li	a4,99
    21b0:	00e49c63          	bne	s1,a4,21c8 <vfprintf+0x1d4>
    21b4:	000a2783          	lw	a5,0(s4)
    21b8:	004a0493          	addi	s1,s4,4
    21bc:	01410d93          	addi	s11,sp,20
    21c0:	00f10a23          	sb	a5,20(sp)
    21c4:	4a05                	li	s4,1
    21c6:	bf75                	j	2182 <vfprintf+0x18e>
    21c8:	07300713          	li	a4,115
    21cc:	04e49763          	bne	s1,a4,221a <vfprintf+0x226>
    21d0:	000a2d83          	lw	s11,0(s4)
    21d4:	004a0493          	addi	s1,s4,4
    21d8:	000d9563          	bnez	s11,21e2 <vfprintf+0x1ee>
    21dc:	678d                	lui	a5,0x3
    21de:	ac478d93          	addi	s11,a5,-1340 # 2ac4 <__iob+0x45c>
    21e2:	04047793          	andi	a5,s0,64
    21e6:	55fd                	li	a1,-1
    21e8:	c391                	beqz	a5,21ec <vfprintf+0x1f8>
    21ea:	85ce                	mv	a1,s3
    21ec:	856e                	mv	a0,s11
    21ee:	267d                	jal	259c <strnlen>
    21f0:	8a2a                	mv	s4,a0
    21f2:	bf41                	j	2182 <vfprintf+0x18e>
    21f4:	85d6                	mv	a1,s5
    21f6:	02000513          	li	a0,32
    21fa:	2e6d                	jal	25b4 <fputc>
    21fc:	1b7d                	addi	s6,s6,-1
    21fe:	41640933          	sub	s2,s0,s6
    2202:	ff6a69e3          	bltu	s4,s6,21f4 <vfprintf+0x200>
    2206:	b741                	j	2186 <vfprintf+0x192>
    2208:	012b0433          	add	s0,s6,s2
    220c:	bfcd                	j	21fe <vfprintf+0x20a>
    220e:	000dc503          	lbu	a0,0(s11)
    2212:	85d6                	mv	a1,s5
    2214:	0d85                	addi	s11,s11,1
    2216:	2e79                	jal	25b4 <fputc>
    2218:	bf9d                	j	218e <vfprintf+0x19a>
    221a:	06400713          	li	a4,100
    221e:	00e48663          	beq	s1,a4,222a <vfprintf+0x236>
    2222:	06900713          	li	a4,105
    2226:	04e49e63          	bne	s1,a4,2282 <vfprintf+0x28e>
    222a:	08047793          	andi	a5,s0,128
    222e:	000a2503          	lw	a0,0(s4)
    2232:	004a0493          	addi	s1,s4,4
    2236:	cb95                	beqz	a5,226a <vfprintf+0x276>
    2238:	00055663          	bgez	a0,2244 <vfprintf+0x250>
    223c:	40a00533          	neg	a0,a0
    2240:	40046413          	ori	s0,s0,1024
    2244:	fef47793          	andi	a5,s0,-17
    2248:	01079d13          	slli	s10,a5,0x10
    224c:	04047413          	andi	s0,s0,64
    2250:	010d5d13          	srli	s10,s10,0x10
    2254:	c409                	beqz	s0,225e <vfprintf+0x26a>
    2256:	00a9ea33          	or	s4,s3,a0
    225a:	060a0e63          	beqz	s4,22d6 <vfprintf+0x2e2>
    225e:	4629                	li	a2,10
    2260:	85e2                	mv	a1,s8
    2262:	3b91                	jal	1fb6 <__ultoa_invert>
    2264:	41850a33          	sub	s4,a0,s8
    2268:	a0bd                	j	22d6 <vfprintf+0x2e2>
    226a:	10047793          	andi	a5,s0,256
    226e:	d7e9                	beqz	a5,2238 <vfprintf+0x244>
    2270:	20047793          	andi	a5,s0,512
    2274:	c781                	beqz	a5,227c <vfprintf+0x288>
    2276:	0562                	slli	a0,a0,0x18
    2278:	8561                	srai	a0,a0,0x18
    227a:	bf7d                	j	2238 <vfprintf+0x244>
    227c:	0542                	slli	a0,a0,0x10
    227e:	8541                	srai	a0,a0,0x10
    2280:	bf65                	j	2238 <vfprintf+0x244>
    2282:	07500713          	li	a4,117
    2286:	10e49263          	bne	s1,a4,238a <vfprintf+0x396>
    228a:	983d                	andi	s0,s0,-17
    228c:	0442                	slli	s0,s0,0x10
    228e:	8041                	srli	s0,s0,0x10
    2290:	4629                	li	a2,10
    2292:	08047793          	andi	a5,s0,128
    2296:	000a2503          	lw	a0,0(s4)
    229a:	004a0493          	addi	s1,s4,4
    229e:	eb91                	bnez	a5,22b2 <vfprintf+0x2be>
    22a0:	10047793          	andi	a5,s0,256
    22a4:	c799                	beqz	a5,22b2 <vfprintf+0x2be>
    22a6:	20047793          	andi	a5,s0,512
    22aa:	12078863          	beqz	a5,23da <vfprintf+0x3e6>
    22ae:	0ff57513          	zext.b	a0,a0
    22b2:	ff947793          	andi	a5,s0,-7
    22b6:	01079d13          	slli	s10,a5,0x10
    22ba:	04047713          	andi	a4,s0,64
    22be:	010d5d13          	srli	s10,s10,0x10
    22c2:	df59                	beqz	a4,2260 <vfprintf+0x26c>
    22c4:	00a9e733          	or	a4,s3,a0
    22c8:	ff41                	bnez	a4,2260 <vfprintf+0x26c>
    22ca:	9825                	andi	s0,s0,-23
    22cc:	01041d13          	slli	s10,s0,0x10
    22d0:	010d5d13          	srli	s10,s10,0x10
    22d4:	4a01                	li	s4,0
    22d6:	040d7713          	andi	a4,s10,64
    22da:	10070363          	beqz	a4,23e0 <vfprintf+0x3ec>
    22de:	ffed7d93          	andi	s11,s10,-2
    22e2:	0dc2                	slli	s11,s11,0x10
    22e4:	010ddd93          	srli	s11,s11,0x10
    22e8:	8452                	mv	s0,s4
    22ea:	013a5d63          	bge	s4,s3,2304 <vfprintf+0x310>
    22ee:	6705                	lui	a4,0x1
    22f0:	00ed7733          	and	a4,s10,a4
    22f4:	844e                	mv	s0,s3
    22f6:	e719                	bnez	a4,2304 <vfprintf+0x310>
    22f8:	feed7793          	andi	a5,s10,-18
    22fc:	01079d93          	slli	s11,a5,0x10
    2300:	010ddd93          	srli	s11,s11,0x10
    2304:	010df793          	andi	a5,s11,16
    2308:	0e078763          	beqz	a5,23f6 <vfprintf+0x402>
    230c:	101c                	addi	a5,sp,32
    230e:	97d2                	add	a5,a5,s4
    2310:	ff37c703          	lbu	a4,-13(a5)
    2314:	03000793          	li	a5,48
    2318:	0cf71763          	bne	a4,a5,23e6 <vfprintf+0x3f2>
    231c:	fefdfd93          	andi	s11,s11,-17
    2320:	0dc2                	slli	s11,s11,0x10
    2322:	010ddd93          	srli	s11,s11,0x10
    2326:	008df793          	andi	a5,s11,8
    232a:	ef89                	bnez	a5,2344 <vfprintf+0x350>
    232c:	001df793          	andi	a5,s11,1
    2330:	0e078863          	beqz	a5,2420 <vfprintf+0x42c>
    2334:	89d2                	mv	s3,s4
    2336:	01645763          	bge	s0,s6,2344 <vfprintf+0x350>
    233a:	408b0433          	sub	s0,s6,s0
    233e:	014409b3          	add	s3,s0,s4
    2342:	845a                	mv	s0,s6
    2344:	010df793          	andi	a5,s11,16
    2348:	408b0b33          	sub	s6,s6,s0
    234c:	0e078e63          	beqz	a5,2448 <vfprintf+0x454>
    2350:	85d6                	mv	a1,s5
    2352:	03000513          	li	a0,48
    2356:	2cb9                	jal	25b4 <fputc>
    2358:	00cdd793          	srli	a5,s11,0xc
    235c:	8b85                	andi	a5,a5,1
    235e:	e3f9                	bnez	a5,2424 <vfprintf+0x430>
    2360:	0905                	addi	s2,s2,1
    2362:	844e                	mv	s0,s3
    2364:	108a4563          	blt	s4,s0,246e <vfprintf+0x47a>
    2368:	4781                	li	a5,0
    236a:	0149c463          	blt	s3,s4,2372 <vfprintf+0x37e>
    236e:	414987b3          	sub	a5,s3,s4
    2372:	993e                	add	s2,s2,a5
    2374:	8452                	mv	s0,s4
    2376:	e0040ee3          	beqz	s0,2192 <vfprintf+0x19e>
    237a:	147d                	addi	s0,s0,-1
    237c:	008c07b3          	add	a5,s8,s0
    2380:	0007c503          	lbu	a0,0(a5)
    2384:	85d6                	mv	a1,s5
    2386:	243d                	jal	25b4 <fputc>
    2388:	b7fd                	j	2376 <vfprintf+0x382>
    238a:	06f00713          	li	a4,111
    238e:	04e48463          	beq	s1,a4,23d6 <vfprintf+0x3e2>
    2392:	07000713          	li	a4,112
    2396:	00e49763          	bne	s1,a4,23a4 <vfprintf+0x3b0>
    239a:	010c8793          	addi	a5,s9,16 # 1010 <i2c_master_write+0xce>
    239e:	8c5d                	or	s0,s0,a5
    23a0:	4641                	li	a2,16
    23a2:	bdc5                	j	2292 <vfprintf+0x29e>
    23a4:	07800713          	li	a4,120
    23a8:	02e79163          	bne	a5,a4,23ca <vfprintf+0x3d6>
    23ac:	05800793          	li	a5,88
    23b0:	00f48463          	beq	s1,a5,23b8 <vfprintf+0x3c4>
    23b4:	6785                	lui	a5,0x1
    23b6:	b7e5                	j	239e <vfprintf+0x3aa>
    23b8:	6789                	lui	a5,0x2
    23ba:	80078793          	addi	a5,a5,-2048 # 1800 <i2c_flash_program_spiflash+0x3c>
    23be:	8c5d                	or	s0,s0,a5
    23c0:	0442                	slli	s0,s0,0x10
    23c2:	8041                	srli	s0,s0,0x10
    23c4:	21000613          	li	a2,528
    23c8:	b5e9                	j	2292 <vfprintf+0x29e>
    23ca:	85d6                	mv	a1,s5
    23cc:	02500513          	li	a0,37
    23d0:	22d5                	jal	25b4 <fputc>
    23d2:	0909                	addi	s2,s2,2
    23d4:	b19d                	j	203a <vfprintf+0x46>
    23d6:	4621                	li	a2,8
    23d8:	bd6d                	j	2292 <vfprintf+0x29e>
    23da:	47a2                	lw	a5,8(sp)
    23dc:	8d7d                	and	a0,a0,a5
    23de:	bdd1                	j	22b2 <vfprintf+0x2be>
    23e0:	8452                	mv	s0,s4
    23e2:	8dea                	mv	s11,s10
    23e4:	b705                	j	2304 <vfprintf+0x310>
    23e6:	00cdd793          	srli	a5,s11,0xc
    23ea:	8b85                	andi	a5,a5,1
    23ec:	e399                	bnez	a5,23f2 <vfprintf+0x3fe>
    23ee:	0405                	addi	s0,s0,1
    23f0:	bf1d                	j	2326 <vfprintf+0x332>
    23f2:	0409                	addi	s0,s0,2
    23f4:	bf0d                	j	2326 <vfprintf+0x332>
    23f6:	406df793          	andi	a5,s11,1030
    23fa:	d795                	beqz	a5,2326 <vfprintf+0x332>
    23fc:	bfcd                	j	23ee <vfprintf+0x3fa>
    23fe:	85d6                	mv	a1,s5
    2400:	02000513          	li	a0,32
    2404:	c63e                	sw	a5,12(sp)
    2406:	227d                	jal	25b4 <fputc>
    2408:	47b2                	lw	a5,12(sp)
    240a:	0785                	addi	a5,a5,1
    240c:	ff67c9e3          	blt	a5,s6,23fe <vfprintf+0x40a>
    2410:	4781                	li	a5,0
    2412:	008b4463          	blt	s6,s0,241a <vfprintf+0x426>
    2416:	408b07b3          	sub	a5,s6,s0
    241a:	993e                	add	s2,s2,a5
    241c:	943e                	add	s0,s0,a5
    241e:	b71d                	j	2344 <vfprintf+0x350>
    2420:	87a2                	mv	a5,s0
    2422:	b7ed                	j	240c <vfprintf+0x418>
    2424:	6785                	lui	a5,0x1
    2426:	80078793          	addi	a5,a5,-2048 # 800 <iob_flush+0x1e>
    242a:	00fdfdb3          	and	s11,s11,a5
    242e:	0dc2                	slli	s11,s11,0x10
    2430:	010ddd93          	srli	s11,s11,0x10
    2434:	0909                	addi	s2,s2,2
    2436:	05800513          	li	a0,88
    243a:	000d9463          	bnez	s11,2442 <vfprintf+0x44e>
    243e:	07800513          	li	a0,120
    2442:	85d6                	mv	a1,s5
    2444:	2a85                	jal	25b4 <fputc>
    2446:	bf31                	j	2362 <vfprintf+0x36e>
    2448:	406df793          	andi	a5,s11,1030
    244c:	f0078be3          	beqz	a5,2362 <vfprintf+0x36e>
    2450:	002df793          	andi	a5,s11,2
    2454:	02000513          	li	a0,32
    2458:	c399                	beqz	a5,245e <vfprintf+0x46a>
    245a:	02b00513          	li	a0,43
    245e:	400dfd93          	andi	s11,s11,1024
    2462:	000d8463          	beqz	s11,246a <vfprintf+0x476>
    2466:	02d00513          	li	a0,45
    246a:	0905                	addi	s2,s2,1
    246c:	bfd9                	j	2442 <vfprintf+0x44e>
    246e:	85d6                	mv	a1,s5
    2470:	03000513          	li	a0,48
    2474:	2281                	jal	25b4 <fputc>
    2476:	147d                	addi	s0,s0,-1
    2478:	b5f5                	j	2364 <vfprintf+0x370>
    247a:	85d6                	mv	a1,s5
    247c:	02000513          	li	a0,32
    2480:	2a15                	jal	25b4 <fputc>
    2482:	147d                	addi	s0,s0,-1
    2484:	bb09                	j	2196 <vfprintf+0x1a2>
    2486:	854a                	mv	a0,s2
    2488:	6105                	addi	sp,sp,32
    248a:	a259                	j	2610 <__riscv_restore_12>

0000248c <memcpy>:
    248c:	00a5c7b3          	xor	a5,a1,a0
    2490:	8b8d                	andi	a5,a5,3
    2492:	00c506b3          	add	a3,a0,a2
    2496:	e781                	bnez	a5,249e <memcpy+0x12>
    2498:	478d                	li	a5,3
    249a:	00c7ee63          	bltu	a5,a2,24b6 <memcpy+0x2a>
    249e:	87aa                	mv	a5,a0
    24a0:	06d57163          	bgeu	a0,a3,2502 <memcpy+0x76>
    24a4:	0005c703          	lbu	a4,0(a1)
    24a8:	0785                	addi	a5,a5,1
    24aa:	0585                	addi	a1,a1,1
    24ac:	fee78fa3          	sb	a4,-1(a5)
    24b0:	fed7eae3          	bltu	a5,a3,24a4 <memcpy+0x18>
    24b4:	8082                	ret
    24b6:	00357713          	andi	a4,a0,3
    24ba:	87aa                	mv	a5,a0
    24bc:	cb11                	beqz	a4,24d0 <memcpy+0x44>
    24be:	0005c703          	lbu	a4,0(a1)
    24c2:	0785                	addi	a5,a5,1
    24c4:	0585                	addi	a1,a1,1
    24c6:	fee78fa3          	sb	a4,-1(a5)
    24ca:	0037f713          	andi	a4,a5,3
    24ce:	b7fd                	j	24bc <memcpy+0x30>
    24d0:	ffc6f713          	andi	a4,a3,-4
    24d4:	40f70833          	sub	a6,a4,a5
    24d8:	02000613          	li	a2,32
    24dc:	03064463          	blt	a2,a6,2504 <memcpy+0x78>
    24e0:	882e                	mv	a6,a1
memcpy():
    24e2:	863e                	mv	a2,a5
    24e4:	06e66b63          	bltu	a2,a4,255a <memcpy+0xce>
    24e8:	ffd78813          	addi	a6,a5,-3
    24ec:	4601                	li	a2,0
    24ee:	01076663          	bltu	a4,a6,24fa <memcpy+0x6e>
    24f2:	070d                	addi	a4,a4,3
    24f4:	8f1d                	sub	a4,a4,a5
    24f6:	ffc77613          	andi	a2,a4,-4
    24fa:	97b2                	add	a5,a5,a2
    24fc:	95b2                	add	a1,a1,a2
    24fe:	fad7e3e3          	bltu	a5,a3,24a4 <memcpy+0x18>
    2502:	8082                	ret
    2504:	0005a383          	lw	t2,0(a1)
    2508:	0045a283          	lw	t0,4(a1)
    250c:	0085af83          	lw	t6,8(a1)
    2510:	00c5af03          	lw	t5,12(a1)
    2514:	0105ae83          	lw	t4,16(a1)
    2518:	0145ae03          	lw	t3,20(a1)
    251c:	0185a303          	lw	t1,24(a1)
    2520:	01c5a883          	lw	a7,28(a1)
    2524:	0077a023          	sw	t2,0(a5)
    2528:	0057a223          	sw	t0,4(a5)
    252c:	0205a803          	lw	a6,32(a1)
    2530:	01f7a423          	sw	t6,8(a5)
    2534:	01e7a623          	sw	t5,12(a5)
    2538:	01d7a823          	sw	t4,16(a5)
    253c:	01c7aa23          	sw	t3,20(a5)
    2540:	0067ac23          	sw	t1,24(a5)
    2544:	0117ae23          	sw	a7,28(a5)
    2548:	02478793          	addi	a5,a5,36
    254c:	02458593          	addi	a1,a1,36
    2550:	ff07ae23          	sw	a6,-4(a5)
    2554:	40f70833          	sub	a6,a4,a5
    2558:	b751                	j	24dc <memcpy+0x50>
    255a:	00082883          	lw	a7,0(a6)
    255e:	0611                	addi	a2,a2,4
    2560:	0811                	addi	a6,a6,4
    2562:	ff162e23          	sw	a7,-4(a2)
    2566:	bfbd                	j	24e4 <memcpy+0x58>

00002568 <__libc_fini_array>:
__libc_fini_array():
    2568:	09c002ef          	jal	t0,2604 <__riscv_save_0>
    256c:	00000713          	li	a4,0
    2570:	00000413          	li	s0,0
    2574:	8c19                	sub	s0,s0,a4
    2576:	8409                	srai	s0,s0,0x2
    2578:	00000493          	li	s1,0
    257c:	e809                	bnez	s0,258e <__libc_fini_array+0x26>
    257e:	00000793          	li	a5,0
    2582:	c789                	beqz	a5,258c <__libc_fini_array+0x24>
    2584:	00000097          	auipc	ra,0x0
    2588:	000000e7          	jalr	zero # 0 <_ftext>
    258c:	a871                	j	2628 <__riscv_restore_0>
    258e:	147d                	addi	s0,s0,-1
    2590:	00241793          	slli	a5,s0,0x2
    2594:	97a6                	add	a5,a5,s1
    2596:	439c                	lw	a5,0(a5)
    2598:	9782                	jalr	a5
    259a:	b7cd                	j	257c <__libc_fini_array+0x14>

0000259c <strnlen>:
strnlen():
    259c:	95aa                	add	a1,a1,a0
    259e:	87aa                	mv	a5,a0
    25a0:	00b78563          	beq	a5,a1,25aa <strnlen+0xe>
    25a4:	0007c703          	lbu	a4,0(a5)
    25a8:	e701                	bnez	a4,25b0 <strnlen+0x14>
    25aa:	40a78533          	sub	a0,a5,a0
    25ae:	8082                	ret
    25b0:	0785                	addi	a5,a5,1
    25b2:	b7fd                	j	25a0 <strnlen+0x4>

000025b4 <fputc>:
putc():
    25b4:	050002ef          	jal	t0,2604 <__riscv_save_0>
    25b8:	0045c703          	lbu	a4,4(a1)
    25bc:	8b09                	andi	a4,a4,2
    25be:	cb01                	beqz	a4,25ce <fputc+0x1a>
    25c0:	459c                	lw	a5,8(a1)
    25c2:	842a                	mv	s0,a0
    25c4:	0ff57513          	zext.b	a0,a0
    25c8:	9782                	jalr	a5
    25ca:	00055363          	bgez	a0,25d0 <fputc+0x1c>
    25ce:	547d                	li	s0,-1
    25d0:	8522                	mv	a0,s0
    25d2:	a899                	j	2628 <__riscv_restore_0>

000025d4 <__riscv_save_12>:
__riscv_save_12():
    25d4:	7139                	addi	sp,sp,-64
    25d6:	4301                	li	t1,0
    25d8:	c66e                	sw	s11,12(sp)
    25da:	a019                	j	25e0 <__riscv_save_10+0x4>

000025dc <__riscv_save_10>:
    25dc:	7139                	addi	sp,sp,-64
    25de:	5341                	li	t1,-16
    25e0:	c86a                	sw	s10,16(sp)
    25e2:	ca66                	sw	s9,20(sp)
    25e4:	cc62                	sw	s8,24(sp)
    25e6:	ce5e                	sw	s7,28(sp)
    25e8:	a019                	j	25ee <__riscv_save_4+0x4>

000025ea <__riscv_save_4>:
    25ea:	7139                	addi	sp,sp,-64
    25ec:	5301                	li	t1,-32
    25ee:	d05a                	sw	s6,32(sp)
    25f0:	d256                	sw	s5,36(sp)
    25f2:	d452                	sw	s4,40(sp)
    25f4:	d64e                	sw	s3,44(sp)
    25f6:	d84a                	sw	s2,48(sp)
    25f8:	da26                	sw	s1,52(sp)
    25fa:	dc22                	sw	s0,56(sp)
    25fc:	de06                	sw	ra,60(sp)
    25fe:	40610133          	sub	sp,sp,t1
    2602:	8282                	jr	t0

00002604 <__riscv_save_0>:
__riscv_save_1():
    2604:	1141                	addi	sp,sp,-16
    2606:	c04a                	sw	s2,0(sp)
    2608:	c226                	sw	s1,4(sp)
    260a:	c422                	sw	s0,8(sp)
    260c:	c606                	sw	ra,12(sp)
    260e:	8282                	jr	t0

00002610 <__riscv_restore_12>:
__riscv_restore_12():
    2610:	4db2                	lw	s11,12(sp)
    2612:	0141                	addi	sp,sp,16

00002614 <__riscv_restore_10>:
    2614:	4d02                	lw	s10,0(sp)
    2616:	4c92                	lw	s9,4(sp)
    2618:	4c22                	lw	s8,8(sp)
    261a:	4bb2                	lw	s7,12(sp)
    261c:	0141                	addi	sp,sp,16

0000261e <__riscv_restore_4>:
    261e:	4b02                	lw	s6,0(sp)
    2620:	4a92                	lw	s5,4(sp)
    2622:	4a22                	lw	s4,8(sp)
    2624:	49b2                	lw	s3,12(sp)
    2626:	0141                	addi	sp,sp,16

00002628 <__riscv_restore_0>:
    2628:	4902                	lw	s2,0(sp)
    262a:	4492                	lw	s1,4(sp)
    262c:	4422                	lw	s0,8(sp)
    262e:	40b2                	lw	ra,12(sp)
    2630:	0141                	addi	sp,sp,16
    2632:	8082                	ret
